
./Minishell:     file format elf64-x86-64


Disassembly of section .init:

0000000000401000 <_init>:
  401000:	f3 0f 1e fa          	endbr64 
  401004:	48 83 ec 08          	sub    $0x8,%rsp
  401008:	48 8b 05 e9 9f 00 00 	mov    0x9fe9(%rip),%rax        # 40aff8 <__gmon_start__@Base>
  40100f:	48 85 c0             	test   %rax,%rax
  401012:	74 02                	je     401016 <_init+0x16>
  401014:	ff d0                	call   *%rax
  401016:	48 83 c4 08          	add    $0x8,%rsp
  40101a:	c3                   	ret    

Disassembly of section .plt:

0000000000401020 <getenv@plt-0x10>:
  401020:	ff 35 e2 9f 00 00    	push   0x9fe2(%rip)        # 40b008 <_GLOBAL_OFFSET_TABLE_+0x8>
  401026:	ff 25 e4 9f 00 00    	jmp    *0x9fe4(%rip)        # 40b010 <_GLOBAL_OFFSET_TABLE_+0x10>
  40102c:	0f 1f 40 00          	nopl   0x0(%rax)

0000000000401030 <getenv@plt>:
  401030:	ff 25 e2 9f 00 00    	jmp    *0x9fe2(%rip)        # 40b018 <getenv@GLIBC_2.2.5>
  401036:	68 00 00 00 00       	push   $0x0
  40103b:	e9 e0 ff ff ff       	jmp    401020 <_init+0x20>

0000000000401040 <free@plt>:
  401040:	ff 25 da 9f 00 00    	jmp    *0x9fda(%rip)        # 40b020 <free@GLIBC_2.2.5>
  401046:	68 01 00 00 00       	push   $0x1
  40104b:	e9 d0 ff ff ff       	jmp    401020 <_init+0x20>

0000000000401050 <sigaction@plt>:
  401050:	ff 25 d2 9f 00 00    	jmp    *0x9fd2(%rip)        # 40b028 <sigaction@GLIBC_2.2.5>
  401056:	68 02 00 00 00       	push   $0x2
  40105b:	e9 c0 ff ff ff       	jmp    401020 <_init+0x20>

0000000000401060 <write@plt>:
  401060:	ff 25 ca 9f 00 00    	jmp    *0x9fca(%rip)        # 40b030 <write@GLIBC_2.2.5>
  401066:	68 03 00 00 00       	push   $0x3
  40106b:	e9 b0 ff ff ff       	jmp    401020 <_init+0x20>

0000000000401070 <chdir@plt>:
  401070:	ff 25 c2 9f 00 00    	jmp    *0x9fc2(%rip)        # 40b038 <chdir@GLIBC_2.2.5>
  401076:	68 04 00 00 00       	push   $0x4
  40107b:	e9 a0 ff ff ff       	jmp    401020 <_init+0x20>

0000000000401080 <printf@plt>:
  401080:	ff 25 ba 9f 00 00    	jmp    *0x9fba(%rip)        # 40b040 <printf@GLIBC_2.2.5>
  401086:	68 05 00 00 00       	push   $0x5
  40108b:	e9 90 ff ff ff       	jmp    401020 <_init+0x20>

0000000000401090 <memset@plt>:
  401090:	ff 25 b2 9f 00 00    	jmp    *0x9fb2(%rip)        # 40b048 <memset@GLIBC_2.2.5>
  401096:	68 06 00 00 00       	push   $0x6
  40109b:	e9 80 ff ff ff       	jmp    401020 <_init+0x20>

00000000004010a0 <getcwd@plt>:
  4010a0:	ff 25 aa 9f 00 00    	jmp    *0x9faa(%rip)        # 40b050 <getcwd@GLIBC_2.2.5>
  4010a6:	68 07 00 00 00       	push   $0x7
  4010ab:	e9 70 ff ff ff       	jmp    401020 <_init+0x20>

00000000004010b0 <close@plt>:
  4010b0:	ff 25 a2 9f 00 00    	jmp    *0x9fa2(%rip)        # 40b058 <close@GLIBC_2.2.5>
  4010b6:	68 08 00 00 00       	push   $0x8
  4010bb:	e9 60 ff ff ff       	jmp    401020 <_init+0x20>

00000000004010c0 <read@plt>:
  4010c0:	ff 25 9a 9f 00 00    	jmp    *0x9f9a(%rip)        # 40b060 <read@GLIBC_2.2.5>
  4010c6:	68 09 00 00 00       	push   $0x9
  4010cb:	e9 50 ff ff ff       	jmp    401020 <_init+0x20>

00000000004010d0 <execve@plt>:
  4010d0:	ff 25 92 9f 00 00    	jmp    *0x9f92(%rip)        # 40b068 <execve@GLIBC_2.2.5>
  4010d6:	68 0a 00 00 00       	push   $0xa
  4010db:	e9 40 ff ff ff       	jmp    401020 <_init+0x20>

00000000004010e0 <sigemptyset@plt>:
  4010e0:	ff 25 8a 9f 00 00    	jmp    *0x9f8a(%rip)        # 40b070 <sigemptyset@GLIBC_2.2.5>
  4010e6:	68 0b 00 00 00       	push   $0xb
  4010eb:	e9 30 ff ff ff       	jmp    401020 <_init+0x20>

00000000004010f0 <memcpy@plt>:
  4010f0:	ff 25 82 9f 00 00    	jmp    *0x9f82(%rip)        # 40b078 <memcpy@GLIBC_2.14>
  4010f6:	68 0c 00 00 00       	push   $0xc
  4010fb:	e9 20 ff ff ff       	jmp    401020 <_init+0x20>

0000000000401100 <kill@plt>:
  401100:	ff 25 7a 9f 00 00    	jmp    *0x9f7a(%rip)        # 40b080 <kill@GLIBC_2.2.5>
  401106:	68 0d 00 00 00       	push   $0xd
  40110b:	e9 10 ff ff ff       	jmp    401020 <_init+0x20>

0000000000401110 <malloc@plt>:
  401110:	ff 25 72 9f 00 00    	jmp    *0x9f72(%rip)        # 40b088 <malloc@GLIBC_2.2.5>
  401116:	68 0e 00 00 00       	push   $0xe
  40111b:	e9 00 ff ff ff       	jmp    401020 <_init+0x20>

0000000000401120 <waitpid@plt>:
  401120:	ff 25 6a 9f 00 00    	jmp    *0x9f6a(%rip)        # 40b090 <waitpid@GLIBC_2.2.5>
  401126:	68 0f 00 00 00       	push   $0xf
  40112b:	e9 f0 fe ff ff       	jmp    401020 <_init+0x20>

0000000000401130 <tcgetattr@plt>:
  401130:	ff 25 62 9f 00 00    	jmp    *0x9f62(%rip)        # 40b098 <tcgetattr@GLIBC_2.2.5>
  401136:	68 10 00 00 00       	push   $0x10
  40113b:	e9 e0 fe ff ff       	jmp    401020 <_init+0x20>

0000000000401140 <tcsetattr@plt>:
  401140:	ff 25 5a 9f 00 00    	jmp    *0x9f5a(%rip)        # 40b0a0 <tcsetattr@GLIBC_2.2.5>
  401146:	68 11 00 00 00       	push   $0x11
  40114b:	e9 d0 fe ff ff       	jmp    401020 <_init+0x20>

0000000000401150 <open@plt>:
  401150:	ff 25 52 9f 00 00    	jmp    *0x9f52(%rip)        # 40b0a8 <open@GLIBC_2.2.5>
  401156:	68 12 00 00 00       	push   $0x12
  40115b:	e9 c0 fe ff ff       	jmp    401020 <_init+0x20>

0000000000401160 <perror@plt>:
  401160:	ff 25 4a 9f 00 00    	jmp    *0x9f4a(%rip)        # 40b0b0 <perror@GLIBC_2.2.5>
  401166:	68 13 00 00 00       	push   $0x13
  40116b:	e9 b0 fe ff ff       	jmp    401020 <_init+0x20>

0000000000401170 <exit@plt>:
  401170:	ff 25 42 9f 00 00    	jmp    *0x9f42(%rip)        # 40b0b8 <exit@GLIBC_2.2.5>
  401176:	68 14 00 00 00       	push   $0x14
  40117b:	e9 a0 fe ff ff       	jmp    401020 <_init+0x20>

0000000000401180 <execv@plt>:
  401180:	ff 25 3a 9f 00 00    	jmp    *0x9f3a(%rip)        # 40b0c0 <execv@GLIBC_2.2.5>
  401186:	68 15 00 00 00       	push   $0x15
  40118b:	e9 90 fe ff ff       	jmp    401020 <_init+0x20>

0000000000401190 <fork@plt>:
  401190:	ff 25 32 9f 00 00    	jmp    *0x9f32(%rip)        # 40b0c8 <fork@GLIBC_2.2.5>
  401196:	68 16 00 00 00       	push   $0x16
  40119b:	e9 80 fe ff ff       	jmp    401020 <_init+0x20>

Disassembly of section .text:

00000000004011a0 <_start>:
  4011a0:	f3 0f 1e fa          	endbr64 
  4011a4:	31 ed                	xor    %ebp,%ebp
  4011a6:	49 89 d1             	mov    %rdx,%r9
  4011a9:	5e                   	pop    %rsi
  4011aa:	48 89 e2             	mov    %rsp,%rdx
  4011ad:	48 83 e4 f0          	and    $0xfffffffffffffff0,%rsp
  4011b1:	50                   	push   %rax
  4011b2:	54                   	push   %rsp
  4011b3:	45 31 c0             	xor    %r8d,%r8d
  4011b6:	31 c9                	xor    %ecx,%ecx
  4011b8:	48 c7 c7 60 71 40 00 	mov    $0x407160,%rdi
  4011bf:	ff 15 2b 9e 00 00    	call   *0x9e2b(%rip)        # 40aff0 <__libc_start_main@GLIBC_2.34>
  4011c5:	f4                   	hlt    
  4011c6:	66 2e 0f 1f 84 00 00 	cs nopw 0x0(%rax,%rax,1)
  4011cd:	00 00 00 

00000000004011d0 <_dl_relocate_static_pie>:
  4011d0:	f3 0f 1e fa          	endbr64 
  4011d4:	c3                   	ret    
  4011d5:	66 2e 0f 1f 84 00 00 	cs nopw 0x0(%rax,%rax,1)
  4011dc:	00 00 00 
  4011df:	90                   	nop

00000000004011e0 <deregister_tm_clones>:
  4011e0:	b8 e0 b0 40 00       	mov    $0x40b0e0,%eax
  4011e5:	48 3d e0 b0 40 00    	cmp    $0x40b0e0,%rax
  4011eb:	74 13                	je     401200 <deregister_tm_clones+0x20>
  4011ed:	b8 00 00 00 00       	mov    $0x0,%eax
  4011f2:	48 85 c0             	test   %rax,%rax
  4011f5:	74 09                	je     401200 <deregister_tm_clones+0x20>
  4011f7:	bf e0 b0 40 00       	mov    $0x40b0e0,%edi
  4011fc:	ff e0                	jmp    *%rax
  4011fe:	66 90                	xchg   %ax,%ax
  401200:	c3                   	ret    
  401201:	66 66 2e 0f 1f 84 00 	data16 cs nopw 0x0(%rax,%rax,1)
  401208:	00 00 00 00 
  40120c:	0f 1f 40 00          	nopl   0x0(%rax)

0000000000401210 <register_tm_clones>:
  401210:	be e0 b0 40 00       	mov    $0x40b0e0,%esi
  401215:	48 81 ee e0 b0 40 00 	sub    $0x40b0e0,%rsi
  40121c:	48 89 f0             	mov    %rsi,%rax
  40121f:	48 c1 ee 3f          	shr    $0x3f,%rsi
  401223:	48 c1 f8 03          	sar    $0x3,%rax
  401227:	48 01 c6             	add    %rax,%rsi
  40122a:	48 d1 fe             	sar    %rsi
  40122d:	74 11                	je     401240 <register_tm_clones+0x30>
  40122f:	b8 00 00 00 00       	mov    $0x0,%eax
  401234:	48 85 c0             	test   %rax,%rax
  401237:	74 07                	je     401240 <register_tm_clones+0x30>
  401239:	bf e0 b0 40 00       	mov    $0x40b0e0,%edi
  40123e:	ff e0                	jmp    *%rax
  401240:	c3                   	ret    
  401241:	66 66 2e 0f 1f 84 00 	data16 cs nopw 0x0(%rax,%rax,1)
  401248:	00 00 00 00 
  40124c:	0f 1f 40 00          	nopl   0x0(%rax)

0000000000401250 <__do_global_dtors_aux>:
  401250:	f3 0f 1e fa          	endbr64 
  401254:	80 3d 85 9e 00 00 00 	cmpb   $0x0,0x9e85(%rip)        # 40b0e0 <__TMC_END__>
  40125b:	75 13                	jne    401270 <__do_global_dtors_aux+0x20>
  40125d:	55                   	push   %rbp
  40125e:	48 89 e5             	mov    %rsp,%rbp
  401261:	e8 7a ff ff ff       	call   4011e0 <deregister_tm_clones>
  401266:	c6 05 73 9e 00 00 01 	movb   $0x1,0x9e73(%rip)        # 40b0e0 <__TMC_END__>
  40126d:	5d                   	pop    %rbp
  40126e:	c3                   	ret    
  40126f:	90                   	nop
  401270:	c3                   	ret    
  401271:	66 66 2e 0f 1f 84 00 	data16 cs nopw 0x0(%rax,%rax,1)
  401278:	00 00 00 00 
  40127c:	0f 1f 40 00          	nopl   0x0(%rax)

0000000000401280 <frame_dummy>:
  401280:	f3 0f 1e fa          	endbr64 
  401284:	eb 8a                	jmp    401210 <register_tm_clones>
  401286:	66 2e 0f 1f 84 00 00 	cs nopw 0x0(%rax,%rax,1)
  40128d:	00 00 00 

0000000000401290 <bltin_echo>:
  401290:	55                   	push   %rbp
  401291:	48 89 e5             	mov    %rsp,%rbp
  401294:	48 83 ec 20          	sub    $0x20,%rsp
  401298:	48 89 7d f0          	mov    %rdi,-0x10(%rbp)
  40129c:	48 83 7d f0 00       	cmpq   $0x0,-0x10(%rbp)
  4012a1:	0f 84 0e 00 00 00    	je     4012b5 <bltin_echo+0x25>
  4012a7:	48 8b 45 f0          	mov    -0x10(%rbp),%rax
  4012ab:	48 83 38 00          	cmpq   $0x0,(%rax)
  4012af:	0f 85 09 00 00 00    	jne    4012be <bltin_echo+0x2e>
  4012b5:	c6 45 ff ff          	movb   $0xff,-0x1(%rbp)
  4012b9:	e9 9e 00 00 00       	jmp    40135c <bltin_echo+0xcc>
  4012be:	c7 45 ec ff ff ff ff 	movl   $0xffffffff,-0x14(%rbp)
  4012c5:	48 8b 45 f0          	mov    -0x10(%rbp),%rax
  4012c9:	8b 4d ec             	mov    -0x14(%rbp),%ecx
  4012cc:	83 c1 01             	add    $0x1,%ecx
  4012cf:	89 4d ec             	mov    %ecx,-0x14(%rbp)
  4012d2:	48 63 c9             	movslq %ecx,%rcx
  4012d5:	48 83 3c c8 00       	cmpq   $0x0,(%rax,%rcx,8)
  4012da:	0f 84 5a 00 00 00    	je     40133a <bltin_echo+0xaa>
  4012e0:	83 7d ec 00          	cmpl   $0x0,-0x14(%rbp)
  4012e4:	0f 8e 19 00 00 00    	jle    401303 <bltin_echo+0x73>
  4012ea:	bf 01 00 00 00       	mov    $0x1,%edi
  4012ef:	48 be 49 83 40 00 00 	movabs $0x408349,%rsi
  4012f6:	00 00 00 
  4012f9:	ba 01 00 00 00       	mov    $0x1,%edx
  4012fe:	e8 5d fd ff ff       	call   401060 <write@plt>
  401303:	48 8b 45 f0          	mov    -0x10(%rbp),%rax
  401307:	48 63 4d ec          	movslq -0x14(%rbp),%rcx
  40130b:	48 8b 04 c8          	mov    (%rax,%rcx,8),%rax
  40130f:	48 89 45 e0          	mov    %rax,-0x20(%rbp)
  401313:	48 8b 45 f0          	mov    -0x10(%rbp),%rax
  401317:	48 63 4d ec          	movslq -0x14(%rbp),%rcx
  40131b:	48 8b 3c c8          	mov    (%rax,%rcx,8),%rdi
  40131f:	e8 2c 47 00 00       	call   405a50 <ft_strlen>
  401324:	48 8b 75 e0          	mov    -0x20(%rbp),%rsi
  401328:	48 63 d0             	movslq %eax,%rdx
  40132b:	bf 01 00 00 00       	mov    $0x1,%edi
  401330:	e8 2b fd ff ff       	call   401060 <write@plt>
  401335:	e9 8b ff ff ff       	jmp    4012c5 <bltin_echo+0x35>
  40133a:	e9 00 00 00 00       	jmp    40133f <bltin_echo+0xaf>
  40133f:	bf 01 00 00 00       	mov    $0x1,%edi
  401344:	48 be 42 83 40 00 00 	movabs $0x408342,%rsi
  40134b:	00 00 00 
  40134e:	ba 01 00 00 00       	mov    $0x1,%edx
  401353:	e8 08 fd ff ff       	call   401060 <write@plt>
  401358:	c6 45 ff 00          	movb   $0x0,-0x1(%rbp)
  40135c:	0f be 45 ff          	movsbl -0x1(%rbp),%eax
  401360:	48 83 c4 20          	add    $0x20,%rsp
  401364:	5d                   	pop    %rbp
  401365:	c3                   	ret    
  401366:	66 2e 0f 1f 84 00 00 	cs nopw 0x0(%rax,%rax,1)
  40136d:	00 00 00 

0000000000401370 <bltin_pwd>:
  401370:	55                   	push   %rbp
  401371:	48 89 e5             	mov    %rsp,%rbp
  401374:	48 83 ec 10          	sub    $0x10,%rsp
  401378:	48 89 7d f8          	mov    %rdi,-0x8(%rbp)
  40137c:	bf 02 00 00 00       	mov    $0x2,%edi
  401381:	48 be 04 80 40 00 00 	movabs $0x408004,%rsi
  401388:	00 00 00 
  40138b:	ba 1b 00 00 00       	mov    $0x1b,%edx
  401390:	e8 cb fc ff ff       	call   401060 <write@plt>
  401395:	31 c0                	xor    %eax,%eax
  401397:	0f be c0             	movsbl %al,%eax
  40139a:	48 83 c4 10          	add    $0x10,%rsp
  40139e:	5d                   	pop    %rbp
  40139f:	c3                   	ret    

00000000004013a0 <bltin_export>:
  4013a0:	55                   	push   %rbp
  4013a1:	48 89 e5             	mov    %rsp,%rbp
  4013a4:	48 83 ec 10          	sub    $0x10,%rsp
  4013a8:	48 89 7d f8          	mov    %rdi,-0x8(%rbp)
  4013ac:	bf 02 00 00 00       	mov    $0x2,%edi
  4013b1:	48 be 20 80 40 00 00 	movabs $0x408020,%rsi
  4013b8:	00 00 00 
  4013bb:	ba 1f 00 00 00       	mov    $0x1f,%edx
  4013c0:	e8 9b fc ff ff       	call   401060 <write@plt>
  4013c5:	31 c0                	xor    %eax,%eax
  4013c7:	0f be c0             	movsbl %al,%eax
  4013ca:	48 83 c4 10          	add    $0x10,%rsp
  4013ce:	5d                   	pop    %rbp
  4013cf:	c3                   	ret    

00000000004013d0 <bltin_unset>:
  4013d0:	55                   	push   %rbp
  4013d1:	48 89 e5             	mov    %rsp,%rbp
  4013d4:	48 83 ec 10          	sub    $0x10,%rsp
  4013d8:	48 89 7d f8          	mov    %rdi,-0x8(%rbp)
  4013dc:	bf 02 00 00 00       	mov    $0x2,%edi
  4013e1:	48 be 3f 80 40 00 00 	movabs $0x40803f,%rsi
  4013e8:	00 00 00 
  4013eb:	ba 1e 00 00 00       	mov    $0x1e,%edx
  4013f0:	e8 6b fc ff ff       	call   401060 <write@plt>
  4013f5:	31 c0                	xor    %eax,%eax
  4013f7:	0f be c0             	movsbl %al,%eax
  4013fa:	48 83 c4 10          	add    $0x10,%rsp
  4013fe:	5d                   	pop    %rbp
  4013ff:	c3                   	ret    

0000000000401400 <bltin_env>:
  401400:	55                   	push   %rbp
  401401:	48 89 e5             	mov    %rsp,%rbp
  401404:	48 83 ec 10          	sub    $0x10,%rsp
  401408:	48 89 7d f8          	mov    %rdi,-0x8(%rbp)
  40140c:	bf 02 00 00 00       	mov    $0x2,%edi
  401411:	48 be 5d 80 40 00 00 	movabs $0x40805d,%rsi
  401418:	00 00 00 
  40141b:	ba 1f 00 00 00       	mov    $0x1f,%edx
  401420:	e8 3b fc ff ff       	call   401060 <write@plt>
  401425:	31 c0                	xor    %eax,%eax
  401427:	0f be c0             	movsbl %al,%eax
  40142a:	48 83 c4 10          	add    $0x10,%rsp
  40142e:	5d                   	pop    %rbp
  40142f:	c3                   	ret    

0000000000401430 <bltin_cd>:
  401430:	55                   	push   %rbp
  401431:	48 89 e5             	mov    %rsp,%rbp
  401434:	48 83 ec 20          	sub    $0x20,%rsp
  401438:	48 89 7d f0          	mov    %rdi,-0x10(%rbp)
  40143c:	48 8b 45 f0          	mov    -0x10(%rbp),%rax
  401440:	48 8b 70 08          	mov    0x8(%rax),%rsi
  401444:	48 bf 79 80 40 00 00 	movabs $0x408079,%rdi
  40144b:	00 00 00 
  40144e:	b0 00                	mov    $0x0,%al
  401450:	e8 0b 14 00 00       	call   402860 <ft_printf>
  401455:	b0 01                	mov    $0x1,%al
  401457:	48 83 7d f0 00       	cmpq   $0x0,-0x10(%rbp)
  40145c:	88 45 ef             	mov    %al,-0x11(%rbp)
  40145f:	0f 84 11 00 00 00    	je     401476 <bltin_cd+0x46>
  401465:	48 8b 45 f0          	mov    -0x10(%rbp),%rax
  401469:	48 83 78 08 00       	cmpq   $0x0,0x8(%rax)
  40146e:	0f 95 c0             	setne  %al
  401471:	34 ff                	xor    $0xff,%al
  401473:	88 45 ef             	mov    %al,-0x11(%rbp)
  401476:	8a 45 ef             	mov    -0x11(%rbp),%al
  401479:	24 01                	and    $0x1,%al
  40147b:	0f b6 c0             	movzbl %al,%eax
  40147e:	48 98                	cltq   
  401480:	48 83 f8 00          	cmp    $0x0,%rax
  401484:	0f 84 1c 00 00 00    	je     4014a6 <bltin_cd+0x76>
  40148a:	48 bf 83 80 40 00 00 	movabs $0x408083,%rdi
  401491:	00 00 00 
  401494:	e8 97 fb ff ff       	call   401030 <getenv@plt>
  401499:	48 89 c7             	mov    %rax,%rdi
  40149c:	e8 cf fb ff ff       	call   401070 <chdir@plt>
  4014a1:	e9 36 00 00 00       	jmp    4014dc <bltin_cd+0xac>
  4014a6:	48 8b 45 f0          	mov    -0x10(%rbp),%rax
  4014aa:	48 8b 78 08          	mov    0x8(%rax),%rdi
  4014ae:	e8 bd fb ff ff       	call   401070 <chdir@plt>
  4014b3:	48 98                	cltq   
  4014b5:	48 83 f8 00          	cmp    $0x0,%rax
  4014b9:	0f 84 18 00 00 00    	je     4014d7 <bltin_cd+0xa7>
  4014bf:	48 bf 88 80 40 00 00 	movabs $0x408088,%rdi
  4014c6:	00 00 00 
  4014c9:	e8 92 fc ff ff       	call   401160 <perror@plt>
  4014ce:	c6 45 ff ff          	movb   $0xff,-0x1(%rbp)
  4014d2:	e9 09 00 00 00       	jmp    4014e0 <bltin_cd+0xb0>
  4014d7:	e9 00 00 00 00       	jmp    4014dc <bltin_cd+0xac>
  4014dc:	c6 45 ff 00          	movb   $0x0,-0x1(%rbp)
  4014e0:	0f be 45 ff          	movsbl -0x1(%rbp),%eax
  4014e4:	48 83 c4 20          	add    $0x20,%rsp
  4014e8:	5d                   	pop    %rbp
  4014e9:	c3                   	ret    
  4014ea:	66 0f 1f 44 00 00    	nopw   0x0(%rax,%rax,1)

00000000004014f0 <free_tab>:
  4014f0:	55                   	push   %rbp
  4014f1:	48 89 e5             	mov    %rsp,%rbp
  4014f4:	48 83 ec 20          	sub    $0x20,%rsp
  4014f8:	48 89 7d f8          	mov    %rdi,-0x8(%rbp)
  4014fc:	b0 01                	mov    $0x1,%al
  4014fe:	48 83 7d f8 00       	cmpq   $0x0,-0x8(%rbp)
  401503:	88 45 ef             	mov    %al,-0x11(%rbp)
  401506:	0f 84 10 00 00 00    	je     40151c <free_tab+0x2c>
  40150c:	48 8b 45 f8          	mov    -0x8(%rbp),%rax
  401510:	48 83 38 00          	cmpq   $0x0,(%rax)
  401514:	0f 95 c0             	setne  %al
  401517:	34 ff                	xor    $0xff,%al
  401519:	88 45 ef             	mov    %al,-0x11(%rbp)
  40151c:	8a 45 ef             	mov    -0x11(%rbp),%al
  40151f:	24 01                	and    $0x1,%al
  401521:	0f b6 c0             	movzbl %al,%eax
  401524:	48 98                	cltq   
  401526:	48 83 f8 00          	cmp    $0x0,%rax
  40152a:	0f 84 05 00 00 00    	je     401535 <free_tab+0x45>
  401530:	e9 4d 00 00 00       	jmp    401582 <free_tab+0x92>
  401535:	48 8b 45 f8          	mov    -0x8(%rbp),%rax
  401539:	48 8b 00             	mov    (%rax),%rax
  40153c:	48 89 45 f0          	mov    %rax,-0x10(%rbp)
  401540:	48 8b 45 f0          	mov    -0x10(%rbp),%rax
  401544:	48 83 38 00          	cmpq   $0x0,(%rax)
  401548:	0f 84 1d 00 00 00    	je     40156b <free_tab+0x7b>
  40154e:	48 8b 45 f0          	mov    -0x10(%rbp),%rax
  401552:	48 8b 38             	mov    (%rax),%rdi
  401555:	e8 e6 fa ff ff       	call   401040 <free@plt>
  40155a:	48 8b 45 f0          	mov    -0x10(%rbp),%rax
  40155e:	48 83 c0 08          	add    $0x8,%rax
  401562:	48 89 45 f0          	mov    %rax,-0x10(%rbp)
  401566:	e9 d5 ff ff ff       	jmp    401540 <free_tab+0x50>
  40156b:	48 8b 45 f8          	mov    -0x8(%rbp),%rax
  40156f:	48 8b 38             	mov    (%rax),%rdi
  401572:	e8 c9 fa ff ff       	call   401040 <free@plt>
  401577:	48 8b 45 f8          	mov    -0x8(%rbp),%rax
  40157b:	48 c7 00 00 00 00 00 	movq   $0x0,(%rax)
  401582:	48 83 c4 20          	add    $0x20,%rsp
  401586:	5d                   	pop    %rbp
  401587:	c3                   	ret    
  401588:	0f 1f 84 00 00 00 00 	nopl   0x0(%rax,%rax,1)
  40158f:	00 

0000000000401590 <is_builtin>:
  401590:	55                   	push   %rbp
  401591:	48 89 e5             	mov    %rsp,%rbp
  401594:	48 83 ec 10          	sub    $0x10,%rsp
  401598:	48 89 7d f8          	mov    %rdi,-0x8(%rbp)
  40159c:	48 8b 7d f8          	mov    -0x8(%rbp),%rdi
  4015a0:	48 be 88 80 40 00 00 	movabs $0x408088,%rsi
  4015a7:	00 00 00 
  4015aa:	ba 02 00 00 00       	mov    $0x2,%edx
  4015af:	e8 7c 43 00 00       	call   405930 <ft_strncmp>
  4015b4:	89 c1                	mov    %eax,%ecx
  4015b6:	b0 01                	mov    $0x1,%al
  4015b8:	83 f9 00             	cmp    $0x0,%ecx
  4015bb:	88 45 f7             	mov    %al,-0x9(%rbp)
  4015be:	0f 84 39 01 00 00    	je     4016fd <is_builtin+0x16d>
  4015c4:	48 8b 7d f8          	mov    -0x8(%rbp),%rdi
  4015c8:	48 be 8b 80 40 00 00 	movabs $0x40808b,%rsi
  4015cf:	00 00 00 
  4015d2:	ba 04 00 00 00       	mov    $0x4,%edx
  4015d7:	e8 54 43 00 00       	call   405930 <ft_strncmp>
  4015dc:	89 c1                	mov    %eax,%ecx
  4015de:	b0 01                	mov    $0x1,%al
  4015e0:	83 f9 00             	cmp    $0x0,%ecx
  4015e3:	88 45 f7             	mov    %al,-0x9(%rbp)
  4015e6:	0f 84 11 01 00 00    	je     4016fd <is_builtin+0x16d>
  4015ec:	48 8b 7d f8          	mov    -0x8(%rbp),%rdi
  4015f0:	48 be 90 80 40 00 00 	movabs $0x408090,%rsi
  4015f7:	00 00 00 
  4015fa:	ba 03 00 00 00       	mov    $0x3,%edx
  4015ff:	e8 2c 43 00 00       	call   405930 <ft_strncmp>
  401604:	89 c1                	mov    %eax,%ecx
  401606:	b0 01                	mov    $0x1,%al
  401608:	83 f9 00             	cmp    $0x0,%ecx
  40160b:	88 45 f7             	mov    %al,-0x9(%rbp)
  40160e:	0f 84 e9 00 00 00    	je     4016fd <is_builtin+0x16d>
  401614:	48 8b 7d f8          	mov    -0x8(%rbp),%rdi
  401618:	48 be 94 80 40 00 00 	movabs $0x408094,%rsi
  40161f:	00 00 00 
  401622:	ba 04 00 00 00       	mov    $0x4,%edx
  401627:	e8 04 43 00 00       	call   405930 <ft_strncmp>
  40162c:	89 c1                	mov    %eax,%ecx
  40162e:	b0 01                	mov    $0x1,%al
  401630:	83 f9 00             	cmp    $0x0,%ecx
  401633:	88 45 f7             	mov    %al,-0x9(%rbp)
  401636:	0f 84 c1 00 00 00    	je     4016fd <is_builtin+0x16d>
  40163c:	48 8b 7d f8          	mov    -0x8(%rbp),%rdi
  401640:	48 be 99 80 40 00 00 	movabs $0x408099,%rsi
  401647:	00 00 00 
  40164a:	ba 06 00 00 00       	mov    $0x6,%edx
  40164f:	e8 dc 42 00 00       	call   405930 <ft_strncmp>
  401654:	89 c1                	mov    %eax,%ecx
  401656:	b0 01                	mov    $0x1,%al
  401658:	83 f9 00             	cmp    $0x0,%ecx
  40165b:	88 45 f7             	mov    %al,-0x9(%rbp)
  40165e:	0f 84 99 00 00 00    	je     4016fd <is_builtin+0x16d>
  401664:	48 8b 7d f8          	mov    -0x8(%rbp),%rdi
  401668:	48 be a0 80 40 00 00 	movabs $0x4080a0,%rsi
  40166f:	00 00 00 
  401672:	ba 03 00 00 00       	mov    $0x3,%edx
  401677:	e8 b4 42 00 00       	call   405930 <ft_strncmp>
  40167c:	89 c1                	mov    %eax,%ecx
  40167e:	b0 01                	mov    $0x1,%al
  401680:	83 f9 00             	cmp    $0x0,%ecx
  401683:	88 45 f7             	mov    %al,-0x9(%rbp)
  401686:	0f 84 71 00 00 00    	je     4016fd <is_builtin+0x16d>
  40168c:	48 8b 7d f8          	mov    -0x8(%rbp),%rdi
  401690:	48 be a4 80 40 00 00 	movabs $0x4080a4,%rsi
  401697:	00 00 00 
  40169a:	ba 05 00 00 00       	mov    $0x5,%edx
  40169f:	e8 8c 42 00 00       	call   405930 <ft_strncmp>
  4016a4:	89 c1                	mov    %eax,%ecx
  4016a6:	b0 01                	mov    $0x1,%al
  4016a8:	83 f9 00             	cmp    $0x0,%ecx
  4016ab:	88 45 f7             	mov    %al,-0x9(%rbp)
  4016ae:	0f 84 49 00 00 00    	je     4016fd <is_builtin+0x16d>
  4016b4:	48 8b 7d f8          	mov    -0x8(%rbp),%rdi
  4016b8:	48 be aa 80 40 00 00 	movabs $0x4080aa,%rsi
  4016bf:	00 00 00 
  4016c2:	ba 07 00 00 00       	mov    $0x7,%edx
  4016c7:	e8 64 42 00 00       	call   405930 <ft_strncmp>
  4016cc:	89 c1                	mov    %eax,%ecx
  4016ce:	b0 01                	mov    $0x1,%al
  4016d0:	83 f9 00             	cmp    $0x0,%ecx
  4016d3:	88 45 f7             	mov    %al,-0x9(%rbp)
  4016d6:	0f 84 21 00 00 00    	je     4016fd <is_builtin+0x16d>
  4016dc:	48 8b 7d f8          	mov    -0x8(%rbp),%rdi
  4016e0:	48 be 25 83 40 00 00 	movabs $0x408325,%rsi
  4016e7:	00 00 00 
  4016ea:	ba 07 00 00 00       	mov    $0x7,%edx
  4016ef:	e8 3c 42 00 00       	call   405930 <ft_strncmp>
  4016f4:	83 f8 00             	cmp    $0x0,%eax
  4016f7:	0f 94 c0             	sete   %al
  4016fa:	88 45 f7             	mov    %al,-0x9(%rbp)
  4016fd:	8a 45 f7             	mov    -0x9(%rbp),%al
  401700:	24 01                	and    $0x1,%al
  401702:	0f b6 c0             	movzbl %al,%eax
  401705:	0f be c0             	movsbl %al,%eax
  401708:	48 83 c4 10          	add    $0x10,%rsp
  40170c:	5d                   	pop    %rbp
  40170d:	c3                   	ret    
  40170e:	66 90                	xchg   %ax,%ax

0000000000401710 <exec_builtin>:
  401710:	55                   	push   %rbp
  401711:	48 89 e5             	mov    %rsp,%rbp
  401714:	48 83 ec 30          	sub    $0x30,%rsp
  401718:	48 89 7d f0          	mov    %rdi,-0x10(%rbp)
  40171c:	48 8b 7d f0          	mov    -0x10(%rbp),%rdi
  401720:	be 20 00 00 00       	mov    $0x20,%esi
  401725:	e8 66 45 00 00       	call   405c90 <ft_split>
  40172a:	48 89 45 e8          	mov    %rax,-0x18(%rbp)
  40172e:	48 83 7d e8 00       	cmpq   $0x0,-0x18(%rbp)
  401733:	0f 95 c0             	setne  %al
  401736:	34 ff                	xor    $0xff,%al
  401738:	24 01                	and    $0x1,%al
  40173a:	0f b6 c0             	movzbl %al,%eax
  40173d:	48 98                	cltq   
  40173f:	48 83 f8 00          	cmp    $0x0,%rax
  401743:	0f 84 09 00 00 00    	je     401752 <exec_builtin+0x42>
  401749:	c6 45 ff ff          	movb   $0xff,-0x1(%rbp)
  40174d:	e9 1a 02 00 00       	jmp    40196c <exec_builtin+0x25c>
  401752:	48 8b 7d f0          	mov    -0x10(%rbp),%rdi
  401756:	48 be 88 80 40 00 00 	movabs $0x408088,%rsi
  40175d:	00 00 00 
  401760:	ba 02 00 00 00       	mov    $0x2,%edx
  401765:	e8 c6 41 00 00       	call   405930 <ft_strncmp>
  40176a:	83 f8 00             	cmp    $0x0,%eax
  40176d:	0f 85 11 00 00 00    	jne    401784 <exec_builtin+0x74>
  401773:	48 8b 7d e8          	mov    -0x18(%rbp),%rdi
  401777:	e8 b4 fc ff ff       	call   401430 <bltin_cd>
  40177c:	88 45 ff             	mov    %al,-0x1(%rbp)
  40177f:	e9 e8 01 00 00       	jmp    40196c <exec_builtin+0x25c>
  401784:	48 8b 7d f0          	mov    -0x10(%rbp),%rdi
  401788:	48 be 8b 80 40 00 00 	movabs $0x40808b,%rsi
  40178f:	00 00 00 
  401792:	ba 04 00 00 00       	mov    $0x4,%edx
  401797:	e8 94 41 00 00       	call   405930 <ft_strncmp>
  40179c:	83 f8 00             	cmp    $0x0,%eax
  40179f:	0f 85 11 00 00 00    	jne    4017b6 <exec_builtin+0xa6>
  4017a5:	48 8b 7d e8          	mov    -0x18(%rbp),%rdi
  4017a9:	e8 e2 fa ff ff       	call   401290 <bltin_echo>
  4017ae:	88 45 ff             	mov    %al,-0x1(%rbp)
  4017b1:	e9 b6 01 00 00       	jmp    40196c <exec_builtin+0x25c>
  4017b6:	48 8b 7d f0          	mov    -0x10(%rbp),%rdi
  4017ba:	48 be 90 80 40 00 00 	movabs $0x408090,%rsi
  4017c1:	00 00 00 
  4017c4:	ba 03 00 00 00       	mov    $0x3,%edx
  4017c9:	e8 62 41 00 00       	call   405930 <ft_strncmp>
  4017ce:	83 f8 00             	cmp    $0x0,%eax
  4017d1:	0f 85 11 00 00 00    	jne    4017e8 <exec_builtin+0xd8>
  4017d7:	48 8b 7d e8          	mov    -0x18(%rbp),%rdi
  4017db:	e8 20 fc ff ff       	call   401400 <bltin_env>
  4017e0:	88 45 ff             	mov    %al,-0x1(%rbp)
  4017e3:	e9 84 01 00 00       	jmp    40196c <exec_builtin+0x25c>
  4017e8:	48 8b 7d f0          	mov    -0x10(%rbp),%rdi
  4017ec:	48 be 94 80 40 00 00 	movabs $0x408094,%rsi
  4017f3:	00 00 00 
  4017f6:	ba 04 00 00 00       	mov    $0x4,%edx
  4017fb:	e8 30 41 00 00       	call   405930 <ft_strncmp>
  401800:	83 f8 00             	cmp    $0x0,%eax
  401803:	0f 85 17 00 00 00    	jne    401820 <exec_builtin+0x110>
  401809:	bf 01 00 00 00       	mov    $0x1,%edi
  40180e:	31 c0                	xor    %eax,%eax
  401810:	89 c6                	mov    %eax,%esi
  401812:	e8 f9 05 00 00       	call   401e10 <exit_program>
  401817:	c6 45 ff 01          	movb   $0x1,-0x1(%rbp)
  40181b:	e9 4c 01 00 00       	jmp    40196c <exec_builtin+0x25c>
  401820:	48 8b 7d f0          	mov    -0x10(%rbp),%rdi
  401824:	48 be 99 80 40 00 00 	movabs $0x408099,%rsi
  40182b:	00 00 00 
  40182e:	ba 06 00 00 00       	mov    $0x6,%edx
  401833:	e8 f8 40 00 00       	call   405930 <ft_strncmp>
  401838:	83 f8 00             	cmp    $0x0,%eax
  40183b:	0f 85 11 00 00 00    	jne    401852 <exec_builtin+0x142>
  401841:	48 8b 7d e8          	mov    -0x18(%rbp),%rdi
  401845:	e8 56 fb ff ff       	call   4013a0 <bltin_export>
  40184a:	88 45 ff             	mov    %al,-0x1(%rbp)
  40184d:	e9 1a 01 00 00       	jmp    40196c <exec_builtin+0x25c>
  401852:	48 8b 7d f0          	mov    -0x10(%rbp),%rdi
  401856:	48 be a0 80 40 00 00 	movabs $0x4080a0,%rsi
  40185d:	00 00 00 
  401860:	ba 03 00 00 00       	mov    $0x3,%edx
  401865:	e8 c6 40 00 00       	call   405930 <ft_strncmp>
  40186a:	83 f8 00             	cmp    $0x0,%eax
  40186d:	0f 85 11 00 00 00    	jne    401884 <exec_builtin+0x174>
  401873:	48 8b 7d e8          	mov    -0x18(%rbp),%rdi
  401877:	e8 f4 fa ff ff       	call   401370 <bltin_pwd>
  40187c:	88 45 ff             	mov    %al,-0x1(%rbp)
  40187f:	e9 e8 00 00 00       	jmp    40196c <exec_builtin+0x25c>
  401884:	48 8b 7d f0          	mov    -0x10(%rbp),%rdi
  401888:	48 be a4 80 40 00 00 	movabs $0x4080a4,%rsi
  40188f:	00 00 00 
  401892:	ba 05 00 00 00       	mov    $0x5,%edx
  401897:	e8 94 40 00 00       	call   405930 <ft_strncmp>
  40189c:	83 f8 00             	cmp    $0x0,%eax
  40189f:	0f 85 11 00 00 00    	jne    4018b6 <exec_builtin+0x1a6>
  4018a5:	48 8b 7d e8          	mov    -0x18(%rbp),%rdi
  4018a9:	e8 22 fb ff ff       	call   4013d0 <bltin_unset>
  4018ae:	88 45 ff             	mov    %al,-0x1(%rbp)
  4018b1:	e9 b6 00 00 00       	jmp    40196c <exec_builtin+0x25c>
  4018b6:	48 8b 7d f0          	mov    -0x10(%rbp),%rdi
  4018ba:	48 be aa 80 40 00 00 	movabs $0x4080aa,%rsi
  4018c1:	00 00 00 
  4018c4:	ba 07 00 00 00       	mov    $0x7,%edx
  4018c9:	e8 62 40 00 00       	call   405930 <ft_strncmp>
  4018ce:	83 f8 00             	cmp    $0x0,%eax
  4018d1:	0f 85 32 00 00 00    	jne    401909 <exec_builtin+0x1f9>
  4018d7:	48 b8 b3 80 40 00 00 	movabs $0x4080b3,%rax
  4018de:	00 00 00 
  4018e1:	48 89 45 d8          	mov    %rax,-0x28(%rbp)
  4018e5:	48 c7 45 e0 00 00 00 	movq   $0x0,-0x20(%rbp)
  4018ec:	00 
  4018ed:	48 8d 75 d8          	lea    -0x28(%rbp),%rsi
  4018f1:	48 bf b3 80 40 00 00 	movabs $0x4080b3,%rdi
  4018f8:	00 00 00 
  4018fb:	e8 80 f8 ff ff       	call   401180 <execv@plt>
  401900:	c6 45 ff 01          	movb   $0x1,-0x1(%rbp)
  401904:	e9 63 00 00 00       	jmp    40196c <exec_builtin+0x25c>
  401909:	48 8b 7d f0          	mov    -0x10(%rbp),%rdi
  40190d:	48 be 25 83 40 00 00 	movabs $0x408325,%rsi
  401914:	00 00 00 
  401917:	ba 07 00 00 00       	mov    $0x7,%edx
  40191c:	e8 0f 40 00 00       	call   405930 <ft_strncmp>
  401921:	83 f8 00             	cmp    $0x0,%eax
  401924:	0f 85 11 00 00 00    	jne    40193b <exec_builtin+0x22b>
  40192a:	48 8b 7d e8          	mov    -0x18(%rbp),%rdi
  40192e:	e8 4d 00 00 00       	call   401980 <bltin_history>
  401933:	88 45 ff             	mov    %al,-0x1(%rbp)
  401936:	e9 31 00 00 00       	jmp    40196c <exec_builtin+0x25c>
  40193b:	e9 00 00 00 00       	jmp    401940 <exec_builtin+0x230>
  401940:	e9 00 00 00 00       	jmp    401945 <exec_builtin+0x235>
  401945:	e9 00 00 00 00       	jmp    40194a <exec_builtin+0x23a>
  40194a:	e9 00 00 00 00       	jmp    40194f <exec_builtin+0x23f>
  40194f:	e9 00 00 00 00       	jmp    401954 <exec_builtin+0x244>
  401954:	e9 00 00 00 00       	jmp    401959 <exec_builtin+0x249>
  401959:	e9 00 00 00 00       	jmp    40195e <exec_builtin+0x24e>
  40195e:	e9 00 00 00 00       	jmp    401963 <exec_builtin+0x253>
  401963:	e9 00 00 00 00       	jmp    401968 <exec_builtin+0x258>
  401968:	c6 45 ff ff          	movb   $0xff,-0x1(%rbp)
  40196c:	0f be 45 ff          	movsbl -0x1(%rbp),%eax
  401970:	48 83 c4 30          	add    $0x30,%rsp
  401974:	5d                   	pop    %rbp
  401975:	c3                   	ret    
  401976:	66 2e 0f 1f 84 00 00 	cs nopw 0x0(%rax,%rax,1)
  40197d:	00 00 00 

0000000000401980 <bltin_history>:
  401980:	55                   	push   %rbp
  401981:	48 89 e5             	mov    %rsp,%rbp
  401984:	48 83 ec 20          	sub    $0x20,%rsp
  401988:	48 89 7d f0          	mov    %rdi,-0x10(%rbp)
  40198c:	e8 bf 24 00 00       	call   403e50 <rl_get_history>
  401991:	48 89 45 e0          	mov    %rax,-0x20(%rbp)
  401995:	48 83 7d e0 00       	cmpq   $0x0,-0x20(%rbp)
  40199a:	0f 95 c0             	setne  %al
  40199d:	34 ff                	xor    $0xff,%al
  40199f:	24 01                	and    $0x1,%al
  4019a1:	0f b6 c0             	movzbl %al,%eax
  4019a4:	48 98                	cltq   
  4019a6:	48 83 f8 00          	cmp    $0x0,%rax
  4019aa:	0f 84 18 00 00 00    	je     4019c8 <bltin_history+0x48>
  4019b0:	48 bf bf 80 40 00 00 	movabs $0x4080bf,%rdi
  4019b7:	00 00 00 
  4019ba:	e8 a1 f7 ff ff       	call   401160 <perror@plt>
  4019bf:	c6 45 ff ff          	movb   $0xff,-0x1(%rbp)
  4019c3:	e9 44 00 00 00       	jmp    401a0c <bltin_history+0x8c>
  4019c8:	c7 45 ec ff ff ff ff 	movl   $0xffffffff,-0x14(%rbp)
  4019cf:	8b 45 ec             	mov    -0x14(%rbp),%eax
  4019d2:	83 c0 01             	add    $0x1,%eax
  4019d5:	89 45 ec             	mov    %eax,-0x14(%rbp)
  4019d8:	3d 00 04 00 00       	cmp    $0x400,%eax
  4019dd:	0f 8d 25 00 00 00    	jge    401a08 <bltin_history+0x88>
  4019e3:	8b 75 ec             	mov    -0x14(%rbp),%esi
  4019e6:	48 8b 45 e0          	mov    -0x20(%rbp),%rax
  4019ea:	48 63 4d ec          	movslq -0x14(%rbp),%rcx
  4019ee:	48 8b 14 c8          	mov    (%rax,%rcx,8),%rdx
  4019f2:	48 bf de 80 40 00 00 	movabs $0x4080de,%rdi
  4019f9:	00 00 00 
  4019fc:	b0 00                	mov    $0x0,%al
  4019fe:	e8 5d 0e 00 00       	call   402860 <ft_printf>
  401a03:	e9 c7 ff ff ff       	jmp    4019cf <bltin_history+0x4f>
  401a08:	c6 45 ff 00          	movb   $0x0,-0x1(%rbp)
  401a0c:	0f be 45 ff          	movsbl -0x1(%rbp),%eax
  401a10:	48 83 c4 20          	add    $0x20,%rsp
  401a14:	5d                   	pop    %rbp
  401a15:	c3                   	ret    
  401a16:	66 90                	xchg   %ax,%ax
  401a18:	0f 1f 84 00 00 00 00 	nopl   0x0(%rax,%rax,1)
  401a1f:	00 

0000000000401a20 <ft_strcat>:
  401a20:	55                   	push   %rbp
  401a21:	48 89 e5             	mov    %rsp,%rbp
  401a24:	48 83 ec 40          	sub    $0x40,%rsp
  401a28:	48 89 7d f0          	mov    %rdi,-0x10(%rbp)
  401a2c:	48 89 75 e8          	mov    %rsi,-0x18(%rbp)
  401a30:	89 55 e4             	mov    %edx,-0x1c(%rbp)
  401a33:	48 8b 7d f0          	mov    -0x10(%rbp),%rdi
  401a37:	e8 14 40 00 00       	call   405a50 <ft_strlen>
  401a3c:	89 45 c8             	mov    %eax,-0x38(%rbp)
  401a3f:	48 8b 7d e8          	mov    -0x18(%rbp),%rdi
  401a43:	e8 08 40 00 00       	call   405a50 <ft_strlen>
  401a48:	89 c1                	mov    %eax,%ecx
  401a4a:	8b 45 c8             	mov    -0x38(%rbp),%eax
  401a4d:	01 c8                	add    %ecx,%eax
  401a4f:	89 45 d4             	mov    %eax,-0x2c(%rbp)
  401a52:	8b 45 d4             	mov    -0x2c(%rbp),%eax
  401a55:	83 c0 01             	add    $0x1,%eax
  401a58:	48 63 f8             	movslq %eax,%rdi
  401a5b:	e8 a0 1b 00 00       	call   403600 <mm_alloc>
  401a60:	48 89 45 d8          	mov    %rax,-0x28(%rbp)
  401a64:	48 83 7d d8 00       	cmpq   $0x0,-0x28(%rbp)
  401a69:	0f 95 c0             	setne  %al
  401a6c:	34 ff                	xor    $0xff,%al
  401a6e:	24 01                	and    $0x1,%al
  401a70:	0f b6 c0             	movzbl %al,%eax
  401a73:	48 98                	cltq   
  401a75:	48 83 f8 00          	cmp    $0x0,%rax
  401a79:	0f 84 1c 00 00 00    	je     401a9b <ft_strcat+0x7b>
  401a7f:	48 bf e8 80 40 00 00 	movabs $0x4080e8,%rdi
  401a86:	00 00 00 
  401a89:	e8 d2 f6 ff ff       	call   401160 <perror@plt>
  401a8e:	48 c7 45 f8 00 00 00 	movq   $0x0,-0x8(%rbp)
  401a95:	00 
  401a96:	e9 bc 00 00 00       	jmp    401b57 <ft_strcat+0x137>
  401a9b:	c7 45 d0 00 00 00 00 	movl   $0x0,-0x30(%rbp)
  401aa2:	48 8b 45 f0          	mov    -0x10(%rbp),%rax
  401aa6:	48 63 4d d0          	movslq -0x30(%rbp),%rcx
  401aaa:	80 3c 08 00          	cmpb   $0x0,(%rax,%rcx,1)
  401aae:	0f 84 24 00 00 00    	je     401ad8 <ft_strcat+0xb8>
  401ab4:	48 8b 45 f0          	mov    -0x10(%rbp),%rax
  401ab8:	48 63 4d d0          	movslq -0x30(%rbp),%rcx
  401abc:	8a 14 08             	mov    (%rax,%rcx,1),%dl
  401abf:	48 8b 45 d8          	mov    -0x28(%rbp),%rax
  401ac3:	48 63 4d d0          	movslq -0x30(%rbp),%rcx
  401ac7:	88 14 08             	mov    %dl,(%rax,%rcx,1)
  401aca:	8b 45 d0             	mov    -0x30(%rbp),%eax
  401acd:	83 c0 01             	add    $0x1,%eax
  401ad0:	89 45 d0             	mov    %eax,-0x30(%rbp)
  401ad3:	e9 ca ff ff ff       	jmp    401aa2 <ft_strcat+0x82>
  401ad8:	c7 45 cc 00 00 00 00 	movl   $0x0,-0x34(%rbp)
  401adf:	48 8b 45 e8          	mov    -0x18(%rbp),%rax
  401ae3:	48 63 4d cc          	movslq -0x34(%rbp),%rcx
  401ae7:	0f be 0c 08          	movsbl (%rax,%rcx,1),%ecx
  401aeb:	31 c0                	xor    %eax,%eax
  401aed:	83 f9 00             	cmp    $0x0,%ecx
  401af0:	88 45 c7             	mov    %al,-0x39(%rbp)
  401af3:	0f 84 0c 00 00 00    	je     401b05 <ft_strcat+0xe5>
  401af9:	8b 45 cc             	mov    -0x34(%rbp),%eax
  401afc:	3b 45 e4             	cmp    -0x1c(%rbp),%eax
  401aff:	0f 9c c0             	setl   %al
  401b02:	88 45 c7             	mov    %al,-0x39(%rbp)
  401b05:	8a 45 c7             	mov    -0x39(%rbp),%al
  401b08:	a8 01                	test   $0x1,%al
  401b0a:	0f 85 05 00 00 00    	jne    401b15 <ft_strcat+0xf5>
  401b10:	e9 29 00 00 00       	jmp    401b3e <ft_strcat+0x11e>
  401b15:	48 8b 45 e8          	mov    -0x18(%rbp),%rax
  401b19:	48 63 4d cc          	movslq -0x34(%rbp),%rcx
  401b1d:	8a 14 08             	mov    (%rax,%rcx,1),%dl
  401b20:	48 8b 45 d8          	mov    -0x28(%rbp),%rax
  401b24:	8b 4d d0             	mov    -0x30(%rbp),%ecx
  401b27:	03 4d cc             	add    -0x34(%rbp),%ecx
  401b2a:	48 63 c9             	movslq %ecx,%rcx
  401b2d:	88 14 08             	mov    %dl,(%rax,%rcx,1)
  401b30:	8b 45 cc             	mov    -0x34(%rbp),%eax
  401b33:	83 c0 01             	add    $0x1,%eax
  401b36:	89 45 cc             	mov    %eax,-0x34(%rbp)
  401b39:	e9 a1 ff ff ff       	jmp    401adf <ft_strcat+0xbf>
  401b3e:	48 8b 45 d8          	mov    -0x28(%rbp),%rax
  401b42:	8b 4d d0             	mov    -0x30(%rbp),%ecx
  401b45:	03 4d cc             	add    -0x34(%rbp),%ecx
  401b48:	48 63 c9             	movslq %ecx,%rcx
  401b4b:	c6 04 08 00          	movb   $0x0,(%rax,%rcx,1)
  401b4f:	48 8b 45 d8          	mov    -0x28(%rbp),%rax
  401b53:	48 89 45 f8          	mov    %rax,-0x8(%rbp)
  401b57:	48 8b 45 f8          	mov    -0x8(%rbp),%rax
  401b5b:	48 83 c4 40          	add    $0x40,%rsp
  401b5f:	5d                   	pop    %rbp
  401b60:	c3                   	ret    
  401b61:	66 2e 0f 1f 84 00 00 	cs nopw 0x0(%rax,%rax,1)
  401b68:	00 00 00 
  401b6b:	0f 1f 44 00 00       	nopl   0x0(%rax,%rax,1)

0000000000401b70 <built_exec_data>:
  401b70:	55                   	push   %rbp
  401b71:	48 89 e5             	mov    %rsp,%rbp
  401b74:	48 83 ec 20          	sub    $0x20,%rsp
  401b78:	48 89 7d f0          	mov    %rdi,-0x10(%rbp)
  401b7c:	bf 28 00 00 00       	mov    $0x28,%edi
  401b81:	e8 7a 1a 00 00       	call   403600 <mm_alloc>
  401b86:	48 89 45 e8          	mov    %rax,-0x18(%rbp)
  401b8a:	48 83 7d e8 00       	cmpq   $0x0,-0x18(%rbp)
  401b8f:	0f 85 1c 00 00 00    	jne    401bb1 <built_exec_data+0x41>
  401b95:	48 bf 08 81 40 00 00 	movabs $0x408108,%rdi
  401b9c:	00 00 00 
  401b9f:	e8 bc f5 ff ff       	call   401160 <perror@plt>
  401ba4:	48 c7 45 f8 00 00 00 	movq   $0x0,-0x8(%rbp)
  401bab:	00 
  401bac:	e9 d6 00 00 00       	jmp    401c87 <built_exec_data+0x117>
  401bb1:	48 8b 7d f0          	mov    -0x10(%rbp),%rdi
  401bb5:	be 20 00 00 00       	mov    $0x20,%esi
  401bba:	e8 d1 40 00 00       	call   405c90 <ft_split>
  401bbf:	48 89 c1             	mov    %rax,%rcx
  401bc2:	48 8b 45 e8          	mov    -0x18(%rbp),%rax
  401bc6:	48 89 48 08          	mov    %rcx,0x8(%rax)
  401bca:	c7 45 e4 00 00 00 00 	movl   $0x0,-0x1c(%rbp)
  401bd1:	48 8b 45 e8          	mov    -0x18(%rbp),%rax
  401bd5:	48 8b 40 08          	mov    0x8(%rax),%rax
  401bd9:	48 8b 00             	mov    (%rax),%rax
  401bdc:	48 63 4d e4          	movslq -0x1c(%rbp),%rcx
  401be0:	80 3c 08 00          	cmpb   $0x0,(%rax,%rcx,1)
  401be4:	0f 84 0e 00 00 00    	je     401bf8 <built_exec_data+0x88>
  401bea:	8b 45 e4             	mov    -0x1c(%rbp),%eax
  401bed:	83 c0 01             	add    $0x1,%eax
  401bf0:	89 45 e4             	mov    %eax,-0x1c(%rbp)
  401bf3:	e9 d9 ff ff ff       	jmp    401bd1 <built_exec_data+0x61>
  401bf8:	48 8b 45 e8          	mov    -0x18(%rbp),%rax
  401bfc:	48 8b 40 08          	mov    0x8(%rax),%rax
  401c00:	48 8b 30             	mov    (%rax),%rsi
  401c03:	8b 55 e4             	mov    -0x1c(%rbp),%edx
  401c06:	48 bf 2e 81 40 00 00 	movabs $0x40812e,%rdi
  401c0d:	00 00 00 
  401c10:	e8 0b fe ff ff       	call   401a20 <ft_strcat>
  401c15:	48 89 c1             	mov    %rax,%rcx
  401c18:	48 8b 45 e8          	mov    -0x18(%rbp),%rax
  401c1c:	48 89 08             	mov    %rcx,(%rax)
  401c1f:	48 8b 45 e8          	mov    -0x18(%rbp),%rax
  401c23:	48 83 38 00          	cmpq   $0x0,(%rax)
  401c27:	0f 84 0f 00 00 00    	je     401c3c <built_exec_data+0xcc>
  401c2d:	48 8b 45 e8          	mov    -0x18(%rbp),%rax
  401c31:	48 83 78 08 00       	cmpq   $0x0,0x8(%rax)
  401c36:	0f 85 3e 00 00 00    	jne    401c7a <built_exec_data+0x10a>
  401c3c:	48 bf 34 81 40 00 00 	movabs $0x408134,%rdi
  401c43:	00 00 00 
  401c46:	e8 15 f5 ff ff       	call   401160 <perror@plt>
  401c4b:	48 8b 45 e8          	mov    -0x18(%rbp),%rax
  401c4f:	48 8b 38             	mov    (%rax),%rdi
  401c52:	e8 f9 1a 00 00       	call   403750 <mm_free>
  401c57:	48 8b 45 e8          	mov    -0x18(%rbp),%rax
  401c5b:	48 8b 78 08          	mov    0x8(%rax),%rdi
  401c5f:	e8 ec 1a 00 00       	call   403750 <mm_free>
  401c64:	48 8b 7d e8          	mov    -0x18(%rbp),%rdi
  401c68:	e8 e3 1a 00 00       	call   403750 <mm_free>
  401c6d:	48 c7 45 f8 00 00 00 	movq   $0x0,-0x8(%rbp)
  401c74:	00 
  401c75:	e9 0d 00 00 00       	jmp    401c87 <built_exec_data+0x117>
  401c7a:	e9 00 00 00 00       	jmp    401c7f <built_exec_data+0x10f>
  401c7f:	48 8b 45 e8          	mov    -0x18(%rbp),%rax
  401c83:	48 89 45 f8          	mov    %rax,-0x8(%rbp)
  401c87:	48 8b 45 f8          	mov    -0x8(%rbp),%rax
  401c8b:	48 83 c4 20          	add    $0x20,%rsp
  401c8f:	5d                   	pop    %rbp
  401c90:	c3                   	ret    
  401c91:	66 2e 0f 1f 84 00 00 	cs nopw 0x0(%rax,%rax,1)
  401c98:	00 00 00 
  401c9b:	0f 1f 44 00 00       	nopl   0x0(%rax,%rax,1)

0000000000401ca0 <exec_cmd>:
  401ca0:	55                   	push   %rbp
  401ca1:	48 89 e5             	mov    %rsp,%rbp
  401ca4:	48 83 ec 20          	sub    $0x20,%rsp
  401ca8:	48 89 7d f0          	mov    %rdi,-0x10(%rbp)
  401cac:	48 89 75 e8          	mov    %rsi,-0x18(%rbp)
  401cb0:	48 83 7d f0 00       	cmpq   $0x0,-0x10(%rbp)
  401cb5:	0f 84 1d 00 00 00    	je     401cd8 <exec_cmd+0x38>
  401cbb:	48 8b 45 f0          	mov    -0x10(%rbp),%rax
  401cbf:	48 83 38 00          	cmpq   $0x0,(%rax)
  401cc3:	0f 84 0f 00 00 00    	je     401cd8 <exec_cmd+0x38>
  401cc9:	48 8b 45 f0          	mov    -0x10(%rbp),%rax
  401ccd:	48 83 78 08 00       	cmpq   $0x0,0x8(%rax)
  401cd2:	0f 85 1b 00 00 00    	jne    401cf3 <exec_cmd+0x53>
  401cd8:	48 bf 59 81 40 00 00 	movabs $0x408159,%rdi
  401cdf:	00 00 00 
  401ce2:	e8 79 f4 ff ff       	call   401160 <perror@plt>
  401ce7:	c7 45 fc ff ff ff ff 	movl   $0xffffffff,-0x4(%rbp)
  401cee:	e9 13 01 00 00       	jmp    401e06 <exec_cmd+0x166>
  401cf3:	e8 98 f4 ff ff       	call   401190 <fork@plt>
  401cf8:	89 45 e4             	mov    %eax,-0x1c(%rbp)
  401cfb:	8b 75 e4             	mov    -0x1c(%rbp),%esi
  401cfe:	48 bf 72 81 40 00 00 	movabs $0x408172,%rdi
  401d05:	00 00 00 
  401d08:	b0 00                	mov    $0x0,%al
  401d0a:	e8 51 0b 00 00       	call   402860 <ft_printf>
  401d0f:	83 7d e4 ff          	cmpl   $0xffffffff,-0x1c(%rbp)
  401d13:	0f 85 1b 00 00 00    	jne    401d34 <exec_cmd+0x94>
  401d19:	48 bf 7b 81 40 00 00 	movabs $0x40817b,%rdi
  401d20:	00 00 00 
  401d23:	e8 38 f4 ff ff       	call   401160 <perror@plt>
  401d28:	c7 45 fc ff ff ff ff 	movl   $0xffffffff,-0x4(%rbp)
  401d2f:	e9 d2 00 00 00       	jmp    401e06 <exec_cmd+0x166>
  401d34:	83 7d e4 00          	cmpl   $0x0,-0x1c(%rbp)
  401d38:	0f 85 5e 00 00 00    	jne    401d9c <exec_cmd+0xfc>
  401d3e:	48 8b 45 f0          	mov    -0x10(%rbp),%rax
  401d42:	48 8b 30             	mov    (%rax),%rsi
  401d45:	48 bf 94 81 40 00 00 	movabs $0x408194,%rdi
  401d4c:	00 00 00 
  401d4f:	b0 00                	mov    $0x0,%al
  401d51:	e8 0a 0b 00 00       	call   402860 <ft_printf>
  401d56:	48 8b 45 f0          	mov    -0x10(%rbp),%rax
  401d5a:	48 8b 38             	mov    (%rax),%rdi
  401d5d:	48 8b 45 f0          	mov    -0x10(%rbp),%rax
  401d61:	48 8b 70 08          	mov    0x8(%rax),%rsi
  401d65:	48 8b 55 e8          	mov    -0x18(%rbp),%rdx
  401d69:	e8 62 f3 ff ff       	call   4010d0 <execve@plt>
  401d6e:	89 45 e0             	mov    %eax,-0x20(%rbp)
  401d71:	8b 75 e0             	mov    -0x20(%rbp),%esi
  401d74:	48 bf a0 81 40 00 00 	movabs $0x4081a0,%rdi
  401d7b:	00 00 00 
  401d7e:	b0 00                	mov    $0x0,%al
  401d80:	e8 db 0a 00 00       	call   402860 <ft_printf>
  401d85:	8b 7d e0             	mov    -0x20(%rbp),%edi
  401d88:	48 be ac 81 40 00 00 	movabs $0x4081ac,%rsi
  401d8f:	00 00 00 
  401d92:	e8 79 00 00 00       	call   401e10 <exit_program>
  401d97:	e9 5b 00 00 00       	jmp    401df7 <exec_cmd+0x157>
  401d9c:	8b 7d e4             	mov    -0x1c(%rbp),%edi
  401d9f:	e8 0c 18 00 00       	call   4035b0 <set_last_child>
  401da4:	8b 7d e4             	mov    -0x1c(%rbp),%edi
  401da7:	48 8b 75 f0          	mov    -0x10(%rbp),%rsi
  401dab:	48 83 c6 10          	add    $0x10,%rsi
  401daf:	31 d2                	xor    %edx,%edx
  401db1:	e8 6a f3 ff ff       	call   401120 <waitpid@plt>
  401db6:	48 8b 45 f0          	mov    -0x10(%rbp),%rax
  401dba:	8b 40 10             	mov    0x10(%rax),%eax
  401dbd:	83 e0 7f             	and    $0x7f,%eax
  401dc0:	83 f8 00             	cmp    $0x0,%eax
  401dc3:	0f 85 1c 00 00 00    	jne    401de5 <exec_cmd+0x145>
  401dc9:	48 8b 45 f0          	mov    -0x10(%rbp),%rax
  401dcd:	8b 48 10             	mov    0x10(%rax),%ecx
  401dd0:	81 e1 00 ff 00 00    	and    $0xff00,%ecx
  401dd6:	c1 f9 08             	sar    $0x8,%ecx
  401dd9:	48 8b 45 f0          	mov    -0x10(%rbp),%rax
  401ddd:	89 48 10             	mov    %ecx,0x10(%rax)
  401de0:	e9 0b 00 00 00       	jmp    401df0 <exec_cmd+0x150>
  401de5:	48 8b 45 f0          	mov    -0x10(%rbp),%rax
  401de9:	c7 40 10 ff ff ff ff 	movl   $0xffffffff,0x10(%rax)
  401df0:	31 ff                	xor    %edi,%edi
  401df2:	e8 b9 17 00 00       	call   4035b0 <set_last_child>
  401df7:	e9 00 00 00 00       	jmp    401dfc <exec_cmd+0x15c>
  401dfc:	48 8b 45 f0          	mov    -0x10(%rbp),%rax
  401e00:	8b 40 10             	mov    0x10(%rax),%eax
  401e03:	89 45 fc             	mov    %eax,-0x4(%rbp)
  401e06:	8b 45 fc             	mov    -0x4(%rbp),%eax
  401e09:	48 83 c4 20          	add    $0x20,%rsp
  401e0d:	5d                   	pop    %rbp
  401e0e:	c3                   	ret    
  401e0f:	90                   	nop

0000000000401e10 <exit_program>:
  401e10:	55                   	push   %rbp
  401e11:	48 89 e5             	mov    %rsp,%rbp
  401e14:	48 83 ec 10          	sub    $0x10,%rsp
  401e18:	89 7d fc             	mov    %edi,-0x4(%rbp)
  401e1b:	48 89 75 f0          	mov    %rsi,-0x10(%rbp)
  401e1f:	e8 7c 20 00 00       	call   403ea0 <reset_cmd>
  401e24:	48 83 7d f0 00       	cmpq   $0x0,-0x10(%rbp)
  401e29:	0f 84 15 00 00 00    	je     401e44 <exit_program+0x34>
  401e2f:	48 8b 75 f0          	mov    -0x10(%rbp),%rsi
  401e33:	48 bf e4 82 40 00 00 	movabs $0x4082e4,%rdi
  401e3a:	00 00 00 
  401e3d:	b0 00                	mov    $0x0,%al
  401e3f:	e8 3c f2 ff ff       	call   401080 <printf@plt>
  401e44:	e8 e7 1f 00 00       	call   403e30 <rl_clear_history>
  401e49:	e8 32 19 00 00       	call   403780 <mm_destroy>
  401e4e:	8b 7d fc             	mov    -0x4(%rbp),%edi
  401e51:	e8 1a f3 ff ff       	call   401170 <exit@plt>
  401e56:	66 2e 0f 1f 84 00 00 	cs nopw 0x0(%rax,%rax,1)
  401e5d:	00 00 00 

0000000000401e60 <_add>:
  401e60:	55                   	push   %rbp
  401e61:	48 89 e5             	mov    %rsp,%rbp
  401e64:	48 83 ec 20          	sub    $0x20,%rsp
  401e68:	40 88 f0             	mov    %sil,%al
  401e6b:	48 89 7d f0          	mov    %rdi,-0x10(%rbp)
  401e6f:	88 45 ef             	mov    %al,-0x11(%rbp)
  401e72:	48 8b 45 f0          	mov    -0x10(%rbp),%rax
  401e76:	8b 40 0c             	mov    0xc(%rax),%eax
  401e79:	48 8b 4d f0          	mov    -0x10(%rbp),%rcx
  401e7d:	3b 41 08             	cmp    0x8(%rcx),%eax
  401e80:	0f 9d c0             	setge  %al
  401e83:	24 01                	and    $0x1,%al
  401e85:	0f b6 c0             	movzbl %al,%eax
  401e88:	48 98                	cltq   
  401e8a:	48 83 f8 00          	cmp    $0x0,%rax
  401e8e:	0f 84 53 00 00 00    	je     401ee7 <_add+0x87>
  401e94:	48 8b 45 f0          	mov    -0x10(%rbp),%rax
  401e98:	83 78 14 ff          	cmpl   $0xffffffff,0x14(%rax)
  401e9c:	0f 84 1b 00 00 00    	je     401ebd <_add+0x5d>
  401ea2:	48 8b 45 f0          	mov    -0x10(%rbp),%rax
  401ea6:	8b 78 14             	mov    0x14(%rax),%edi
  401ea9:	48 8b 45 f0          	mov    -0x10(%rbp),%rax
  401ead:	48 8b 30             	mov    (%rax),%rsi
  401eb0:	48 8b 45 f0          	mov    -0x10(%rbp),%rax
  401eb4:	48 63 50 0c          	movslq 0xc(%rax),%rdx
  401eb8:	e8 a3 f1 ff ff       	call   401060 <write@plt>
  401ebd:	48 8b 45 f0          	mov    -0x10(%rbp),%rax
  401ec1:	48 8b 38             	mov    (%rax),%rdi
  401ec4:	48 8b 45 f0          	mov    -0x10(%rbp),%rax
  401ec8:	8b 70 08             	mov    0x8(%rax),%esi
  401ecb:	e8 a0 10 00 00       	call   402f70 <ft_bzero>
  401ed0:	48 8b 45 f0          	mov    -0x10(%rbp),%rax
  401ed4:	c7 40 0c 00 00 00 00 	movl   $0x0,0xc(%rax)
  401edb:	c7 45 fc 00 00 00 00 	movl   $0x0,-0x4(%rbp)
  401ee2:	e9 33 00 00 00       	jmp    401f1a <_add+0xba>
  401ee7:	8a 55 ef             	mov    -0x11(%rbp),%dl
  401eea:	48 8b 45 f0          	mov    -0x10(%rbp),%rax
  401eee:	48 8b 00             	mov    (%rax),%rax
  401ef1:	48 8b 75 f0          	mov    -0x10(%rbp),%rsi
  401ef5:	8b 4e 0c             	mov    0xc(%rsi),%ecx
  401ef8:	89 cf                	mov    %ecx,%edi
  401efa:	83 c7 01             	add    $0x1,%edi
  401efd:	89 7e 0c             	mov    %edi,0xc(%rsi)
  401f00:	48 63 c9             	movslq %ecx,%rcx
  401f03:	88 14 08             	mov    %dl,(%rax,%rcx,1)
  401f06:	48 8b 45 f0          	mov    -0x10(%rbp),%rax
  401f0a:	8b 48 10             	mov    0x10(%rax),%ecx
  401f0d:	83 c1 01             	add    $0x1,%ecx
  401f10:	89 48 10             	mov    %ecx,0x10(%rax)
  401f13:	c7 45 fc 01 00 00 00 	movl   $0x1,-0x4(%rbp)
  401f1a:	8b 45 fc             	mov    -0x4(%rbp),%eax
  401f1d:	48 83 c4 20          	add    $0x20,%rsp
  401f21:	5d                   	pop    %rbp
  401f22:	c3                   	ret    
  401f23:	66 2e 0f 1f 84 00 00 	cs nopw 0x0(%rax,%rax,1)
  401f2a:	00 00 00 
  401f2d:	0f 1f 00             	nopl   (%rax)

0000000000401f30 <write_arg>:
  401f30:	55                   	push   %rbp
  401f31:	48 89 e5             	mov    %rsp,%rbp
  401f34:	48 81 ec e0 00 00 00 	sub    $0xe0,%rsp
  401f3b:	48 89 7d f0          	mov    %rdi,-0x10(%rbp)
  401f3f:	48 89 75 e8          	mov    %rsi,-0x18(%rbp)
  401f43:	48 89 55 e0          	mov    %rdx,-0x20(%rbp)
  401f47:	48 8b 45 f0          	mov    -0x10(%rbp),%rax
  401f4b:	8a 40 01             	mov    0x1(%rax),%al
  401f4e:	88 45 df             	mov    %al,-0x21(%rbp)
  401f51:	0f be 45 df          	movsbl -0x21(%rbp),%eax
  401f55:	83 f8 63             	cmp    $0x63,%eax
  401f58:	0f 85 78 00 00 00    	jne    401fd6 <write_arg+0xa6>
  401f5e:	48 8b 45 e0          	mov    -0x20(%rbp),%rax
  401f62:	48 8b 40 20          	mov    0x20(%rax),%rax
  401f66:	48 89 45 c0          	mov    %rax,-0x40(%rbp)
  401f6a:	48 8b 45 e0          	mov    -0x20(%rbp),%rax
  401f6e:	48 89 45 c8          	mov    %rax,-0x38(%rbp)
  401f72:	48 8b 45 e8          	mov    -0x18(%rbp),%rax
  401f76:	48 89 45 d0          	mov    %rax,-0x30(%rbp)
  401f7a:	8b 00                	mov    (%rax),%eax
  401f7c:	89 45 d8             	mov    %eax,-0x28(%rbp)
  401f7f:	83 f8 28             	cmp    $0x28,%eax
  401f82:	0f 87 1c 00 00 00    	ja     401fa4 <write_arg+0x74>
  401f88:	48 8b 4d d0          	mov    -0x30(%rbp),%rcx
  401f8c:	8b 55 d8             	mov    -0x28(%rbp),%edx
  401f8f:	48 63 c2             	movslq %edx,%rax
  401f92:	48 03 41 10          	add    0x10(%rcx),%rax
  401f96:	83 c2 08             	add    $0x8,%edx
  401f99:	89 11                	mov    %edx,(%rcx)
  401f9b:	48 89 45 b8          	mov    %rax,-0x48(%rbp)
  401f9f:	e9 17 00 00 00       	jmp    401fbb <write_arg+0x8b>
  401fa4:	48 8b 4d d0          	mov    -0x30(%rbp),%rcx
  401fa8:	48 8b 51 08          	mov    0x8(%rcx),%rdx
  401fac:	48 89 d0             	mov    %rdx,%rax
  401faf:	48 83 c2 08          	add    $0x8,%rdx
  401fb3:	48 89 51 08          	mov    %rdx,0x8(%rcx)
  401fb7:	48 89 45 b8          	mov    %rax,-0x48(%rbp)
  401fbb:	48 8b 45 c0          	mov    -0x40(%rbp),%rax
  401fbf:	48 8b 7d c8          	mov    -0x38(%rbp),%rdi
  401fc3:	48 8b 4d b8          	mov    -0x48(%rbp),%rcx
  401fc7:	8b 09                	mov    (%rcx),%ecx
  401fc9:	0f be f1             	movsbl %cl,%esi
  401fcc:	ff d0                	call   *%rax
  401fce:	89 45 fc             	mov    %eax,-0x4(%rbp)
  401fd1:	e9 89 03 00 00       	jmp    40235f <write_arg+0x42f>
  401fd6:	0f be 45 df          	movsbl -0x21(%rbp),%eax
  401fda:	83 f8 73             	cmp    $0x73,%eax
  401fdd:	0f 85 61 00 00 00    	jne    402044 <write_arg+0x114>
  401fe3:	48 8b 45 e8          	mov    -0x18(%rbp),%rax
  401fe7:	48 89 45 a8          	mov    %rax,-0x58(%rbp)
  401feb:	8b 00                	mov    (%rax),%eax
  401fed:	89 45 b4             	mov    %eax,-0x4c(%rbp)
  401ff0:	83 f8 28             	cmp    $0x28,%eax
  401ff3:	0f 87 1c 00 00 00    	ja     402015 <write_arg+0xe5>
  401ff9:	48 8b 4d a8          	mov    -0x58(%rbp),%rcx
  401ffd:	8b 55 b4             	mov    -0x4c(%rbp),%edx
  402000:	48 63 c2             	movslq %edx,%rax
  402003:	48 03 41 10          	add    0x10(%rcx),%rax
  402007:	83 c2 08             	add    $0x8,%edx
  40200a:	89 11                	mov    %edx,(%rcx)
  40200c:	48 89 45 a0          	mov    %rax,-0x60(%rbp)
  402010:	e9 17 00 00 00       	jmp    40202c <write_arg+0xfc>
  402015:	48 8b 4d a8          	mov    -0x58(%rbp),%rcx
  402019:	48 8b 51 08          	mov    0x8(%rcx),%rdx
  40201d:	48 89 d0             	mov    %rdx,%rax
  402020:	48 83 c2 08          	add    $0x8,%rdx
  402024:	48 89 51 08          	mov    %rdx,0x8(%rcx)
  402028:	48 89 45 a0          	mov    %rax,-0x60(%rbp)
  40202c:	48 8b 45 a0          	mov    -0x60(%rbp),%rax
  402030:	48 8b 38             	mov    (%rax),%rdi
  402033:	48 8b 75 e0          	mov    -0x20(%rbp),%rsi
  402037:	e8 e4 0f 00 00       	call   403020 <writestr>
  40203c:	89 45 fc             	mov    %eax,-0x4(%rbp)
  40203f:	e9 1b 03 00 00       	jmp    40235f <write_arg+0x42f>
  402044:	0f be 45 df          	movsbl -0x21(%rbp),%eax
  402048:	83 f8 70             	cmp    $0x70,%eax
  40204b:	0f 85 61 00 00 00    	jne    4020b2 <write_arg+0x182>
  402051:	48 8b 45 e8          	mov    -0x18(%rbp),%rax
  402055:	48 89 45 90          	mov    %rax,-0x70(%rbp)
  402059:	8b 00                	mov    (%rax),%eax
  40205b:	89 45 9c             	mov    %eax,-0x64(%rbp)
  40205e:	83 f8 28             	cmp    $0x28,%eax
  402061:	0f 87 1c 00 00 00    	ja     402083 <write_arg+0x153>
  402067:	48 8b 4d 90          	mov    -0x70(%rbp),%rcx
  40206b:	8b 55 9c             	mov    -0x64(%rbp),%edx
  40206e:	48 63 c2             	movslq %edx,%rax
  402071:	48 03 41 10          	add    0x10(%rcx),%rax
  402075:	83 c2 08             	add    $0x8,%edx
  402078:	89 11                	mov    %edx,(%rcx)
  40207a:	48 89 45 88          	mov    %rax,-0x78(%rbp)
  40207e:	e9 17 00 00 00       	jmp    40209a <write_arg+0x16a>
  402083:	48 8b 4d 90          	mov    -0x70(%rbp),%rcx
  402087:	48 8b 51 08          	mov    0x8(%rcx),%rdx
  40208b:	48 89 d0             	mov    %rdx,%rax
  40208e:	48 83 c2 08          	add    $0x8,%rdx
  402092:	48 89 51 08          	mov    %rdx,0x8(%rcx)
  402096:	48 89 45 88          	mov    %rax,-0x78(%rbp)
  40209a:	48 8b 45 88          	mov    -0x78(%rbp),%rax
  40209e:	48 8b 38             	mov    (%rax),%rdi
  4020a1:	48 8b 75 e0          	mov    -0x20(%rbp),%rsi
  4020a5:	e8 e6 10 00 00       	call   403190 <writeptr>
  4020aa:	89 45 fc             	mov    %eax,-0x4(%rbp)
  4020ad:	e9 ad 02 00 00       	jmp    40235f <write_arg+0x42f>
  4020b2:	0f be 45 df          	movsbl -0x21(%rbp),%eax
  4020b6:	83 f8 64             	cmp    $0x64,%eax
  4020b9:	0f 84 0d 00 00 00    	je     4020cc <write_arg+0x19c>
  4020bf:	0f be 45 df          	movsbl -0x21(%rbp),%eax
  4020c3:	83 f8 69             	cmp    $0x69,%eax
  4020c6:	0f 85 73 00 00 00    	jne    40213f <write_arg+0x20f>
  4020cc:	48 8b 45 e8          	mov    -0x18(%rbp),%rax
  4020d0:	48 89 85 78 ff ff ff 	mov    %rax,-0x88(%rbp)
  4020d7:	8b 00                	mov    (%rax),%eax
  4020d9:	89 45 84             	mov    %eax,-0x7c(%rbp)
  4020dc:	83 f8 28             	cmp    $0x28,%eax
  4020df:	0f 87 22 00 00 00    	ja     402107 <write_arg+0x1d7>
  4020e5:	48 8b 8d 78 ff ff ff 	mov    -0x88(%rbp),%rcx
  4020ec:	8b 55 84             	mov    -0x7c(%rbp),%edx
  4020ef:	48 63 c2             	movslq %edx,%rax
  4020f2:	48 03 41 10          	add    0x10(%rcx),%rax
  4020f6:	83 c2 08             	add    $0x8,%edx
  4020f9:	89 11                	mov    %edx,(%rcx)
  4020fb:	48 89 85 70 ff ff ff 	mov    %rax,-0x90(%rbp)
  402102:	e9 1d 00 00 00       	jmp    402124 <write_arg+0x1f4>
  402107:	48 8b 8d 78 ff ff ff 	mov    -0x88(%rbp),%rcx
  40210e:	48 8b 51 08          	mov    0x8(%rcx),%rdx
  402112:	48 89 d0             	mov    %rdx,%rax
  402115:	48 83 c2 08          	add    $0x8,%rdx
  402119:	48 89 51 08          	mov    %rdx,0x8(%rcx)
  40211d:	48 89 85 70 ff ff ff 	mov    %rax,-0x90(%rbp)
  402124:	48 8b 85 70 ff ff ff 	mov    -0x90(%rbp),%rax
  40212b:	48 63 38             	movslq (%rax),%rdi
  40212e:	48 8b 75 e0          	mov    -0x20(%rbp),%rsi
  402132:	e8 09 11 00 00       	call   403240 <writedec>
  402137:	89 45 fc             	mov    %eax,-0x4(%rbp)
  40213a:	e9 20 02 00 00       	jmp    40235f <write_arg+0x42f>
  40213f:	0f be 45 df          	movsbl -0x21(%rbp),%eax
  402143:	83 f8 75             	cmp    $0x75,%eax
  402146:	0f 85 7a 00 00 00    	jne    4021c6 <write_arg+0x296>
  40214c:	48 8b 45 e8          	mov    -0x18(%rbp),%rax
  402150:	48 89 85 60 ff ff ff 	mov    %rax,-0xa0(%rbp)
  402157:	8b 00                	mov    (%rax),%eax
  402159:	89 85 6c ff ff ff    	mov    %eax,-0x94(%rbp)
  40215f:	83 f8 28             	cmp    $0x28,%eax
  402162:	0f 87 25 00 00 00    	ja     40218d <write_arg+0x25d>
  402168:	48 8b 8d 60 ff ff ff 	mov    -0xa0(%rbp),%rcx
  40216f:	8b 95 6c ff ff ff    	mov    -0x94(%rbp),%edx
  402175:	48 63 c2             	movslq %edx,%rax
  402178:	48 03 41 10          	add    0x10(%rcx),%rax
  40217c:	83 c2 08             	add    $0x8,%edx
  40217f:	89 11                	mov    %edx,(%rcx)
  402181:	48 89 85 58 ff ff ff 	mov    %rax,-0xa8(%rbp)
  402188:	e9 1d 00 00 00       	jmp    4021aa <write_arg+0x27a>
  40218d:	48 8b 8d 60 ff ff ff 	mov    -0xa0(%rbp),%rcx
  402194:	48 8b 51 08          	mov    0x8(%rcx),%rdx
  402198:	48 89 d0             	mov    %rdx,%rax
  40219b:	48 83 c2 08          	add    $0x8,%rdx
  40219f:	48 89 51 08          	mov    %rdx,0x8(%rcx)
  4021a3:	48 89 85 58 ff ff ff 	mov    %rax,-0xa8(%rbp)
  4021aa:	48 8b 85 58 ff ff ff 	mov    -0xa8(%rbp),%rax
  4021b1:	8b 00                	mov    (%rax),%eax
  4021b3:	89 c7                	mov    %eax,%edi
  4021b5:	48 8b 75 e0          	mov    -0x20(%rbp),%rsi
  4021b9:	e8 82 10 00 00       	call   403240 <writedec>
  4021be:	89 45 fc             	mov    %eax,-0x4(%rbp)
  4021c1:	e9 99 01 00 00       	jmp    40235f <write_arg+0x42f>
  4021c6:	0f be 45 df          	movsbl -0x21(%rbp),%eax
  4021ca:	83 f8 78             	cmp    $0x78,%eax
  4021cd:	0f 85 84 00 00 00    	jne    402257 <write_arg+0x327>
  4021d3:	48 8b 45 e8          	mov    -0x18(%rbp),%rax
  4021d7:	48 89 85 48 ff ff ff 	mov    %rax,-0xb8(%rbp)
  4021de:	8b 00                	mov    (%rax),%eax
  4021e0:	89 85 54 ff ff ff    	mov    %eax,-0xac(%rbp)
  4021e6:	83 f8 28             	cmp    $0x28,%eax
  4021e9:	0f 87 25 00 00 00    	ja     402214 <write_arg+0x2e4>
  4021ef:	48 8b 8d 48 ff ff ff 	mov    -0xb8(%rbp),%rcx
  4021f6:	8b 95 54 ff ff ff    	mov    -0xac(%rbp),%edx
  4021fc:	48 63 c2             	movslq %edx,%rax
  4021ff:	48 03 41 10          	add    0x10(%rcx),%rax
  402203:	83 c2 08             	add    $0x8,%edx
  402206:	89 11                	mov    %edx,(%rcx)
  402208:	48 89 85 40 ff ff ff 	mov    %rax,-0xc0(%rbp)
  40220f:	e9 1d 00 00 00       	jmp    402231 <write_arg+0x301>
  402214:	48 8b 8d 48 ff ff ff 	mov    -0xb8(%rbp),%rcx
  40221b:	48 8b 51 08          	mov    0x8(%rcx),%rdx
  40221f:	48 89 d0             	mov    %rdx,%rax
  402222:	48 83 c2 08          	add    $0x8,%rdx
  402226:	48 89 51 08          	mov    %rdx,0x8(%rcx)
  40222a:	48 89 85 40 ff ff ff 	mov    %rax,-0xc0(%rbp)
  402231:	48 8b 85 40 ff ff ff 	mov    -0xc0(%rbp),%rax
  402238:	8b 00                	mov    (%rax),%eax
  40223a:	89 c7                	mov    %eax,%edi
  40223c:	48 8b 75 e0          	mov    -0x20(%rbp),%rsi
  402240:	48 ba c1 81 40 00 00 	movabs $0x4081c1,%rdx
  402247:	00 00 00 
  40224a:	e8 71 0e 00 00       	call   4030c0 <writehex>
  40224f:	89 45 fc             	mov    %eax,-0x4(%rbp)
  402252:	e9 08 01 00 00       	jmp    40235f <write_arg+0x42f>
  402257:	0f be 45 df          	movsbl -0x21(%rbp),%eax
  40225b:	83 f8 58             	cmp    $0x58,%eax
  40225e:	0f 85 84 00 00 00    	jne    4022e8 <write_arg+0x3b8>
  402264:	48 8b 45 e8          	mov    -0x18(%rbp),%rax
  402268:	48 89 85 30 ff ff ff 	mov    %rax,-0xd0(%rbp)
  40226f:	8b 00                	mov    (%rax),%eax
  402271:	89 85 3c ff ff ff    	mov    %eax,-0xc4(%rbp)
  402277:	83 f8 28             	cmp    $0x28,%eax
  40227a:	0f 87 25 00 00 00    	ja     4022a5 <write_arg+0x375>
  402280:	48 8b 8d 30 ff ff ff 	mov    -0xd0(%rbp),%rcx
  402287:	8b 95 3c ff ff ff    	mov    -0xc4(%rbp),%edx
  40228d:	48 63 c2             	movslq %edx,%rax
  402290:	48 03 41 10          	add    0x10(%rcx),%rax
  402294:	83 c2 08             	add    $0x8,%edx
  402297:	89 11                	mov    %edx,(%rcx)
  402299:	48 89 85 28 ff ff ff 	mov    %rax,-0xd8(%rbp)
  4022a0:	e9 1d 00 00 00       	jmp    4022c2 <write_arg+0x392>
  4022a5:	48 8b 8d 30 ff ff ff 	mov    -0xd0(%rbp),%rcx
  4022ac:	48 8b 51 08          	mov    0x8(%rcx),%rdx
  4022b0:	48 89 d0             	mov    %rdx,%rax
  4022b3:	48 83 c2 08          	add    $0x8,%rdx
  4022b7:	48 89 51 08          	mov    %rdx,0x8(%rcx)
  4022bb:	48 89 85 28 ff ff ff 	mov    %rax,-0xd8(%rbp)
  4022c2:	48 8b 85 28 ff ff ff 	mov    -0xd8(%rbp),%rax
  4022c9:	8b 00                	mov    (%rax),%eax
  4022cb:	89 c7                	mov    %eax,%edi
  4022cd:	48 8b 75 e0          	mov    -0x20(%rbp),%rsi
  4022d1:	48 ba d2 81 40 00 00 	movabs $0x4081d2,%rdx
  4022d8:	00 00 00 
  4022db:	e8 e0 0d 00 00       	call   4030c0 <writehex>
  4022e0:	89 45 fc             	mov    %eax,-0x4(%rbp)
  4022e3:	e9 77 00 00 00       	jmp    40235f <write_arg+0x42f>
  4022e8:	0f be 45 df          	movsbl -0x21(%rbp),%eax
  4022ec:	83 f8 25             	cmp    $0x25,%eax
  4022ef:	0f 85 1b 00 00 00    	jne    402310 <write_arg+0x3e0>
  4022f5:	48 8b 45 e0          	mov    -0x20(%rbp),%rax
  4022f9:	48 8b 40 20          	mov    0x20(%rax),%rax
  4022fd:	48 8b 7d e0          	mov    -0x20(%rbp),%rdi
  402301:	be 25 00 00 00       	mov    $0x25,%esi
  402306:	ff d0                	call   *%rax
  402308:	89 45 fc             	mov    %eax,-0x4(%rbp)
  40230b:	e9 4f 00 00 00       	jmp    40235f <write_arg+0x42f>
  402310:	48 8b 45 e0          	mov    -0x20(%rbp),%rax
  402314:	48 8b 40 20          	mov    0x20(%rax),%rax
  402318:	48 8b 7d e0          	mov    -0x20(%rbp),%rdi
  40231c:	be 25 00 00 00       	mov    $0x25,%esi
  402321:	ff d0                	call   *%rax
  402323:	48 8b 45 e0          	mov    -0x20(%rbp),%rax
  402327:	48 8b 40 20          	mov    0x20(%rax),%rax
  40232b:	48 8b 7d e0          	mov    -0x20(%rbp),%rdi
  40232f:	0f be 75 df          	movsbl -0x21(%rbp),%esi
  402333:	ff d0                	call   *%rax
  402335:	e9 00 00 00 00       	jmp    40233a <write_arg+0x40a>
  40233a:	e9 00 00 00 00       	jmp    40233f <write_arg+0x40f>
  40233f:	e9 00 00 00 00       	jmp    402344 <write_arg+0x414>
  402344:	e9 00 00 00 00       	jmp    402349 <write_arg+0x419>
  402349:	e9 00 00 00 00       	jmp    40234e <write_arg+0x41e>
  40234e:	e9 00 00 00 00       	jmp    402353 <write_arg+0x423>
  402353:	e9 00 00 00 00       	jmp    402358 <write_arg+0x428>
  402358:	c7 45 fc 00 00 00 00 	movl   $0x0,-0x4(%rbp)
  40235f:	8b 45 fc             	mov    -0x4(%rbp),%eax
  402362:	48 81 c4 e0 00 00 00 	add    $0xe0,%rsp
  402369:	5d                   	pop    %rbp
  40236a:	c3                   	ret    
  40236b:	0f 1f 44 00 00       	nopl   0x0(%rax,%rax,1)

0000000000402370 <write_loop>:
  402370:	55                   	push   %rbp
  402371:	48 89 e5             	mov    %rsp,%rbp
  402374:	48 81 ec 00 01 00 00 	sub    $0x100,%rsp
  40237b:	48 89 7d d0          	mov    %rdi,-0x30(%rbp)
  40237f:	48 89 75 c8          	mov    %rsi,-0x38(%rbp)
  402383:	48 89 55 c0          	mov    %rdx,-0x40(%rbp)
  402387:	48 8b 7d d0          	mov    -0x30(%rbp),%rdi
  40238b:	e8 70 0b 00 00       	call   402f00 <printf_strlen>
  402390:	89 45 bc             	mov    %eax,-0x44(%rbp)
  402393:	c7 45 b8 ff ff ff ff 	movl   $0xffffffff,-0x48(%rbp)
  40239a:	8b 4d b8             	mov    -0x48(%rbp),%ecx
  40239d:	83 c1 01             	add    $0x1,%ecx
  4023a0:	89 4d b8             	mov    %ecx,-0x48(%rbp)
  4023a3:	31 c0                	xor    %eax,%eax
  4023a5:	3b 4d bc             	cmp    -0x44(%rbp),%ecx
  4023a8:	88 45 b7             	mov    %al,-0x49(%rbp)
  4023ab:	0f 8d 10 00 00 00    	jge    4023c1 <write_loop+0x51>
  4023b1:	48 8b 45 c0          	mov    -0x40(%rbp),%rax
  4023b5:	80 78 18 00          	cmpb   $0x0,0x18(%rax)
  4023b9:	0f 95 c0             	setne  %al
  4023bc:	34 ff                	xor    $0xff,%al
  4023be:	88 45 b7             	mov    %al,-0x49(%rbp)
  4023c1:	8a 45 b7             	mov    -0x49(%rbp),%al
  4023c4:	a8 01                	test   $0x1,%al
  4023c6:	0f 85 05 00 00 00    	jne    4023d1 <write_loop+0x61>
  4023cc:	e9 7d 04 00 00       	jmp    40284e <write_loop+0x4de>
  4023d1:	48 8b 45 d0          	mov    -0x30(%rbp),%rax
  4023d5:	48 63 4d b8          	movslq -0x48(%rbp),%rcx
  4023d9:	0f be 04 08          	movsbl (%rax,%rcx,1),%eax
  4023dd:	83 f8 25             	cmp    $0x25,%eax
  4023e0:	0f 85 49 04 00 00    	jne    40282f <write_loop+0x4bf>
  4023e6:	48 8b 55 d0          	mov    -0x30(%rbp),%rdx
  4023ea:	48 63 45 b8          	movslq -0x48(%rbp),%rax
  4023ee:	48 01 c2             	add    %rax,%rdx
  4023f1:	48 8b 4d c8          	mov    -0x38(%rbp),%rcx
  4023f5:	48 8b 45 c0          	mov    -0x40(%rbp),%rax
  4023f9:	48 89 55 f0          	mov    %rdx,-0x10(%rbp)
  4023fd:	48 89 4d e8          	mov    %rcx,-0x18(%rbp)
  402401:	48 89 45 e0          	mov    %rax,-0x20(%rbp)
  402405:	48 8b 45 f0          	mov    -0x10(%rbp),%rax
  402409:	8a 40 01             	mov    0x1(%rax),%al
  40240c:	88 45 df             	mov    %al,-0x21(%rbp)
  40240f:	0f be 45 df          	movsbl -0x21(%rbp),%eax
  402413:	83 f8 63             	cmp    $0x63,%eax
  402416:	0f 85 78 00 00 00    	jne    402494 <write_loop+0x124>
  40241c:	48 8b 45 e0          	mov    -0x20(%rbp),%rax
  402420:	48 8b 40 20          	mov    0x20(%rax),%rax
  402424:	48 89 45 98          	mov    %rax,-0x68(%rbp)
  402428:	48 8b 45 e0          	mov    -0x20(%rbp),%rax
  40242c:	48 89 45 a0          	mov    %rax,-0x60(%rbp)
  402430:	48 8b 45 e8          	mov    -0x18(%rbp),%rax
  402434:	48 89 45 a8          	mov    %rax,-0x58(%rbp)
  402438:	8b 00                	mov    (%rax),%eax
  40243a:	89 45 b0             	mov    %eax,-0x50(%rbp)
  40243d:	83 f8 28             	cmp    $0x28,%eax
  402440:	0f 87 1c 00 00 00    	ja     402462 <write_loop+0xf2>
  402446:	48 8b 4d a8          	mov    -0x58(%rbp),%rcx
  40244a:	8b 55 b0             	mov    -0x50(%rbp),%edx
  40244d:	48 63 c2             	movslq %edx,%rax
  402450:	48 03 41 10          	add    0x10(%rcx),%rax
  402454:	83 c2 08             	add    $0x8,%edx
  402457:	89 11                	mov    %edx,(%rcx)
  402459:	48 89 45 90          	mov    %rax,-0x70(%rbp)
  40245d:	e9 17 00 00 00       	jmp    402479 <write_loop+0x109>
  402462:	48 8b 4d a8          	mov    -0x58(%rbp),%rcx
  402466:	48 8b 51 08          	mov    0x8(%rcx),%rdx
  40246a:	48 89 d0             	mov    %rdx,%rax
  40246d:	48 83 c2 08          	add    $0x8,%rdx
  402471:	48 89 51 08          	mov    %rdx,0x8(%rcx)
  402475:	48 89 45 90          	mov    %rax,-0x70(%rbp)
  402479:	48 8b 45 98          	mov    -0x68(%rbp),%rax
  40247d:	48 8b 7d a0          	mov    -0x60(%rbp),%rdi
  402481:	48 8b 4d 90          	mov    -0x70(%rbp),%rcx
  402485:	8b 09                	mov    (%rcx),%ecx
  402487:	0f be f1             	movsbl %cl,%esi
  40248a:	ff d0                	call   *%rax
  40248c:	89 45 fc             	mov    %eax,-0x4(%rbp)
  40248f:	e9 8d 03 00 00       	jmp    402821 <write_loop+0x4b1>
  402494:	0f be 45 df          	movsbl -0x21(%rbp),%eax
  402498:	83 f8 73             	cmp    $0x73,%eax
  40249b:	0f 85 6a 00 00 00    	jne    40250b <write_loop+0x19b>
  4024a1:	48 8b 45 e8          	mov    -0x18(%rbp),%rax
  4024a5:	48 89 45 80          	mov    %rax,-0x80(%rbp)
  4024a9:	8b 00                	mov    (%rax),%eax
  4024ab:	89 45 8c             	mov    %eax,-0x74(%rbp)
  4024ae:	83 f8 28             	cmp    $0x28,%eax
  4024b1:	0f 87 1f 00 00 00    	ja     4024d6 <write_loop+0x166>
  4024b7:	48 8b 4d 80          	mov    -0x80(%rbp),%rcx
  4024bb:	8b 55 8c             	mov    -0x74(%rbp),%edx
  4024be:	48 63 c2             	movslq %edx,%rax
  4024c1:	48 03 41 10          	add    0x10(%rcx),%rax
  4024c5:	83 c2 08             	add    $0x8,%edx
  4024c8:	89 11                	mov    %edx,(%rcx)
  4024ca:	48 89 85 78 ff ff ff 	mov    %rax,-0x88(%rbp)
  4024d1:	e9 1a 00 00 00       	jmp    4024f0 <write_loop+0x180>
  4024d6:	48 8b 4d 80          	mov    -0x80(%rbp),%rcx
  4024da:	48 8b 51 08          	mov    0x8(%rcx),%rdx
  4024de:	48 89 d0             	mov    %rdx,%rax
  4024e1:	48 83 c2 08          	add    $0x8,%rdx
  4024e5:	48 89 51 08          	mov    %rdx,0x8(%rcx)
  4024e9:	48 89 85 78 ff ff ff 	mov    %rax,-0x88(%rbp)
  4024f0:	48 8b 85 78 ff ff ff 	mov    -0x88(%rbp),%rax
  4024f7:	48 8b 38             	mov    (%rax),%rdi
  4024fa:	48 8b 75 e0          	mov    -0x20(%rbp),%rsi
  4024fe:	e8 1d 0b 00 00       	call   403020 <writestr>
  402503:	89 45 fc             	mov    %eax,-0x4(%rbp)
  402506:	e9 16 03 00 00       	jmp    402821 <write_loop+0x4b1>
  40250b:	0f be 45 df          	movsbl -0x21(%rbp),%eax
  40250f:	83 f8 70             	cmp    $0x70,%eax
  402512:	0f 85 79 00 00 00    	jne    402591 <write_loop+0x221>
  402518:	48 8b 45 e8          	mov    -0x18(%rbp),%rax
  40251c:	48 89 85 68 ff ff ff 	mov    %rax,-0x98(%rbp)
  402523:	8b 00                	mov    (%rax),%eax
  402525:	89 85 74 ff ff ff    	mov    %eax,-0x8c(%rbp)
  40252b:	83 f8 28             	cmp    $0x28,%eax
  40252e:	0f 87 25 00 00 00    	ja     402559 <write_loop+0x1e9>
  402534:	48 8b 8d 68 ff ff ff 	mov    -0x98(%rbp),%rcx
  40253b:	8b 95 74 ff ff ff    	mov    -0x8c(%rbp),%edx
  402541:	48 63 c2             	movslq %edx,%rax
  402544:	48 03 41 10          	add    0x10(%rcx),%rax
  402548:	83 c2 08             	add    $0x8,%edx
  40254b:	89 11                	mov    %edx,(%rcx)
  40254d:	48 89 85 60 ff ff ff 	mov    %rax,-0xa0(%rbp)
  402554:	e9 1d 00 00 00       	jmp    402576 <write_loop+0x206>
  402559:	48 8b 8d 68 ff ff ff 	mov    -0x98(%rbp),%rcx
  402560:	48 8b 51 08          	mov    0x8(%rcx),%rdx
  402564:	48 89 d0             	mov    %rdx,%rax
  402567:	48 83 c2 08          	add    $0x8,%rdx
  40256b:	48 89 51 08          	mov    %rdx,0x8(%rcx)
  40256f:	48 89 85 60 ff ff ff 	mov    %rax,-0xa0(%rbp)
  402576:	48 8b 85 60 ff ff ff 	mov    -0xa0(%rbp),%rax
  40257d:	48 8b 38             	mov    (%rax),%rdi
  402580:	48 8b 75 e0          	mov    -0x20(%rbp),%rsi
  402584:	e8 07 0c 00 00       	call   403190 <writeptr>
  402589:	89 45 fc             	mov    %eax,-0x4(%rbp)
  40258c:	e9 90 02 00 00       	jmp    402821 <write_loop+0x4b1>
  402591:	0f be 45 df          	movsbl -0x21(%rbp),%eax
  402595:	83 f8 64             	cmp    $0x64,%eax
  402598:	0f 84 0d 00 00 00    	je     4025ab <write_loop+0x23b>
  40259e:	0f be 45 df          	movsbl -0x21(%rbp),%eax
  4025a2:	83 f8 69             	cmp    $0x69,%eax
  4025a5:	0f 85 79 00 00 00    	jne    402624 <write_loop+0x2b4>
  4025ab:	48 8b 45 e8          	mov    -0x18(%rbp),%rax
  4025af:	48 89 85 50 ff ff ff 	mov    %rax,-0xb0(%rbp)
  4025b6:	8b 00                	mov    (%rax),%eax
  4025b8:	89 85 5c ff ff ff    	mov    %eax,-0xa4(%rbp)
  4025be:	83 f8 28             	cmp    $0x28,%eax
  4025c1:	0f 87 25 00 00 00    	ja     4025ec <write_loop+0x27c>
  4025c7:	48 8b 8d 50 ff ff ff 	mov    -0xb0(%rbp),%rcx
  4025ce:	8b 95 5c ff ff ff    	mov    -0xa4(%rbp),%edx
  4025d4:	48 63 c2             	movslq %edx,%rax
  4025d7:	48 03 41 10          	add    0x10(%rcx),%rax
  4025db:	83 c2 08             	add    $0x8,%edx
  4025de:	89 11                	mov    %edx,(%rcx)
  4025e0:	48 89 85 48 ff ff ff 	mov    %rax,-0xb8(%rbp)
  4025e7:	e9 1d 00 00 00       	jmp    402609 <write_loop+0x299>
  4025ec:	48 8b 8d 50 ff ff ff 	mov    -0xb0(%rbp),%rcx
  4025f3:	48 8b 51 08          	mov    0x8(%rcx),%rdx
  4025f7:	48 89 d0             	mov    %rdx,%rax
  4025fa:	48 83 c2 08          	add    $0x8,%rdx
  4025fe:	48 89 51 08          	mov    %rdx,0x8(%rcx)
  402602:	48 89 85 48 ff ff ff 	mov    %rax,-0xb8(%rbp)
  402609:	48 8b 85 48 ff ff ff 	mov    -0xb8(%rbp),%rax
  402610:	48 63 38             	movslq (%rax),%rdi
  402613:	48 8b 75 e0          	mov    -0x20(%rbp),%rsi
  402617:	e8 24 0c 00 00       	call   403240 <writedec>
  40261c:	89 45 fc             	mov    %eax,-0x4(%rbp)
  40261f:	e9 fd 01 00 00       	jmp    402821 <write_loop+0x4b1>
  402624:	0f be 45 df          	movsbl -0x21(%rbp),%eax
  402628:	83 f8 75             	cmp    $0x75,%eax
  40262b:	0f 85 7a 00 00 00    	jne    4026ab <write_loop+0x33b>
  402631:	48 8b 45 e8          	mov    -0x18(%rbp),%rax
  402635:	48 89 85 38 ff ff ff 	mov    %rax,-0xc8(%rbp)
  40263c:	8b 00                	mov    (%rax),%eax
  40263e:	89 85 44 ff ff ff    	mov    %eax,-0xbc(%rbp)
  402644:	83 f8 28             	cmp    $0x28,%eax
  402647:	0f 87 25 00 00 00    	ja     402672 <write_loop+0x302>
  40264d:	48 8b 8d 38 ff ff ff 	mov    -0xc8(%rbp),%rcx
  402654:	8b 95 44 ff ff ff    	mov    -0xbc(%rbp),%edx
  40265a:	48 63 c2             	movslq %edx,%rax
  40265d:	48 03 41 10          	add    0x10(%rcx),%rax
  402661:	83 c2 08             	add    $0x8,%edx
  402664:	89 11                	mov    %edx,(%rcx)
  402666:	48 89 85 30 ff ff ff 	mov    %rax,-0xd0(%rbp)
  40266d:	e9 1d 00 00 00       	jmp    40268f <write_loop+0x31f>
  402672:	48 8b 8d 38 ff ff ff 	mov    -0xc8(%rbp),%rcx
  402679:	48 8b 51 08          	mov    0x8(%rcx),%rdx
  40267d:	48 89 d0             	mov    %rdx,%rax
  402680:	48 83 c2 08          	add    $0x8,%rdx
  402684:	48 89 51 08          	mov    %rdx,0x8(%rcx)
  402688:	48 89 85 30 ff ff ff 	mov    %rax,-0xd0(%rbp)
  40268f:	48 8b 85 30 ff ff ff 	mov    -0xd0(%rbp),%rax
  402696:	8b 00                	mov    (%rax),%eax
  402698:	89 c7                	mov    %eax,%edi
  40269a:	48 8b 75 e0          	mov    -0x20(%rbp),%rsi
  40269e:	e8 9d 0b 00 00       	call   403240 <writedec>
  4026a3:	89 45 fc             	mov    %eax,-0x4(%rbp)
  4026a6:	e9 76 01 00 00       	jmp    402821 <write_loop+0x4b1>
  4026ab:	0f be 45 df          	movsbl -0x21(%rbp),%eax
  4026af:	83 f8 78             	cmp    $0x78,%eax
  4026b2:	0f 85 84 00 00 00    	jne    40273c <write_loop+0x3cc>
  4026b8:	48 8b 45 e8          	mov    -0x18(%rbp),%rax
  4026bc:	48 89 85 20 ff ff ff 	mov    %rax,-0xe0(%rbp)
  4026c3:	8b 00                	mov    (%rax),%eax
  4026c5:	89 85 2c ff ff ff    	mov    %eax,-0xd4(%rbp)
  4026cb:	83 f8 28             	cmp    $0x28,%eax
  4026ce:	0f 87 25 00 00 00    	ja     4026f9 <write_loop+0x389>
  4026d4:	48 8b 8d 20 ff ff ff 	mov    -0xe0(%rbp),%rcx
  4026db:	8b 95 2c ff ff ff    	mov    -0xd4(%rbp),%edx
  4026e1:	48 63 c2             	movslq %edx,%rax
  4026e4:	48 03 41 10          	add    0x10(%rcx),%rax
  4026e8:	83 c2 08             	add    $0x8,%edx
  4026eb:	89 11                	mov    %edx,(%rcx)
  4026ed:	48 89 85 18 ff ff ff 	mov    %rax,-0xe8(%rbp)
  4026f4:	e9 1d 00 00 00       	jmp    402716 <write_loop+0x3a6>
  4026f9:	48 8b 8d 20 ff ff ff 	mov    -0xe0(%rbp),%rcx
  402700:	48 8b 51 08          	mov    0x8(%rcx),%rdx
  402704:	48 89 d0             	mov    %rdx,%rax
  402707:	48 83 c2 08          	add    $0x8,%rdx
  40270b:	48 89 51 08          	mov    %rdx,0x8(%rcx)
  40270f:	48 89 85 18 ff ff ff 	mov    %rax,-0xe8(%rbp)
  402716:	48 8b 85 18 ff ff ff 	mov    -0xe8(%rbp),%rax
  40271d:	8b 00                	mov    (%rax),%eax
  40271f:	89 c7                	mov    %eax,%edi
  402721:	48 8b 75 e0          	mov    -0x20(%rbp),%rsi
  402725:	48 ba c1 81 40 00 00 	movabs $0x4081c1,%rdx
  40272c:	00 00 00 
  40272f:	e8 8c 09 00 00       	call   4030c0 <writehex>
  402734:	89 45 fc             	mov    %eax,-0x4(%rbp)
  402737:	e9 e5 00 00 00       	jmp    402821 <write_loop+0x4b1>
  40273c:	0f be 45 df          	movsbl -0x21(%rbp),%eax
  402740:	83 f8 58             	cmp    $0x58,%eax
  402743:	0f 85 84 00 00 00    	jne    4027cd <write_loop+0x45d>
  402749:	48 8b 45 e8          	mov    -0x18(%rbp),%rax
  40274d:	48 89 85 08 ff ff ff 	mov    %rax,-0xf8(%rbp)
  402754:	8b 00                	mov    (%rax),%eax
  402756:	89 85 14 ff ff ff    	mov    %eax,-0xec(%rbp)
  40275c:	83 f8 28             	cmp    $0x28,%eax
  40275f:	0f 87 25 00 00 00    	ja     40278a <write_loop+0x41a>
  402765:	48 8b 8d 08 ff ff ff 	mov    -0xf8(%rbp),%rcx
  40276c:	8b 95 14 ff ff ff    	mov    -0xec(%rbp),%edx
  402772:	48 63 c2             	movslq %edx,%rax
  402775:	48 03 41 10          	add    0x10(%rcx),%rax
  402779:	83 c2 08             	add    $0x8,%edx
  40277c:	89 11                	mov    %edx,(%rcx)
  40277e:	48 89 85 00 ff ff ff 	mov    %rax,-0x100(%rbp)
  402785:	e9 1d 00 00 00       	jmp    4027a7 <write_loop+0x437>
  40278a:	48 8b 8d 08 ff ff ff 	mov    -0xf8(%rbp),%rcx
  402791:	48 8b 51 08          	mov    0x8(%rcx),%rdx
  402795:	48 89 d0             	mov    %rdx,%rax
  402798:	48 83 c2 08          	add    $0x8,%rdx
  40279c:	48 89 51 08          	mov    %rdx,0x8(%rcx)
  4027a0:	48 89 85 00 ff ff ff 	mov    %rax,-0x100(%rbp)
  4027a7:	48 8b 85 00 ff ff ff 	mov    -0x100(%rbp),%rax
  4027ae:	8b 00                	mov    (%rax),%eax
  4027b0:	89 c7                	mov    %eax,%edi
  4027b2:	48 8b 75 e0          	mov    -0x20(%rbp),%rsi
  4027b6:	48 ba d2 81 40 00 00 	movabs $0x4081d2,%rdx
  4027bd:	00 00 00 
  4027c0:	e8 fb 08 00 00       	call   4030c0 <writehex>
  4027c5:	89 45 fc             	mov    %eax,-0x4(%rbp)
  4027c8:	e9 54 00 00 00       	jmp    402821 <write_loop+0x4b1>
  4027cd:	0f be 45 df          	movsbl -0x21(%rbp),%eax
  4027d1:	83 f8 25             	cmp    $0x25,%eax
  4027d4:	0f 85 1b 00 00 00    	jne    4027f5 <write_loop+0x485>
  4027da:	48 8b 45 e0          	mov    -0x20(%rbp),%rax
  4027de:	48 8b 40 20          	mov    0x20(%rax),%rax
  4027e2:	48 8b 7d e0          	mov    -0x20(%rbp),%rdi
  4027e6:	be 25 00 00 00       	mov    $0x25,%esi
  4027eb:	ff d0                	call   *%rax
  4027ed:	89 45 fc             	mov    %eax,-0x4(%rbp)
  4027f0:	e9 2c 00 00 00       	jmp    402821 <write_loop+0x4b1>
  4027f5:	48 8b 45 e0          	mov    -0x20(%rbp),%rax
  4027f9:	48 8b 40 20          	mov    0x20(%rax),%rax
  4027fd:	48 8b 7d e0          	mov    -0x20(%rbp),%rdi
  402801:	be 25 00 00 00       	mov    $0x25,%esi
  402806:	ff d0                	call   *%rax
  402808:	48 8b 45 e0          	mov    -0x20(%rbp),%rax
  40280c:	48 8b 40 20          	mov    0x20(%rax),%rax
  402810:	48 8b 7d e0          	mov    -0x20(%rbp),%rdi
  402814:	0f be 75 df          	movsbl -0x21(%rbp),%esi
  402818:	ff d0                	call   *%rax
  40281a:	c7 45 fc 00 00 00 00 	movl   $0x0,-0x4(%rbp)
  402821:	8b 45 b8             	mov    -0x48(%rbp),%eax
  402824:	83 c0 01             	add    $0x1,%eax
  402827:	89 45 b8             	mov    %eax,-0x48(%rbp)
  40282a:	e9 1a 00 00 00       	jmp    402849 <write_loop+0x4d9>
  40282f:	48 8b 45 c0          	mov    -0x40(%rbp),%rax
  402833:	48 8b 40 20          	mov    0x20(%rax),%rax
  402837:	48 8b 7d c0          	mov    -0x40(%rbp),%rdi
  40283b:	48 8b 4d d0          	mov    -0x30(%rbp),%rcx
  40283f:	48 63 55 b8          	movslq -0x48(%rbp),%rdx
  402843:	0f be 34 11          	movsbl (%rcx,%rdx,1),%esi
  402847:	ff d0                	call   *%rax
  402849:	e9 4c fb ff ff       	jmp    40239a <write_loop+0x2a>
  40284e:	48 8b 45 c0          	mov    -0x40(%rbp),%rax
  402852:	8b 40 10             	mov    0x10(%rax),%eax
  402855:	48 81 c4 00 01 00 00 	add    $0x100,%rsp
  40285c:	5d                   	pop    %rbp
  40285d:	c3                   	ret    
  40285e:	66 90                	xchg   %ax,%ax

0000000000402860 <ft_printf>:
  402860:	55                   	push   %rbp
  402861:	48 89 e5             	mov    %rsp,%rbp
  402864:	48 81 ec 00 12 00 00 	sub    $0x1200,%rsp
  40286b:	0f 29 bd 10 ee ff ff 	movaps %xmm7,-0x11f0(%rbp)
  402872:	0f 29 b5 20 ee ff ff 	movaps %xmm6,-0x11e0(%rbp)
  402879:	0f 29 ad 30 ee ff ff 	movaps %xmm5,-0x11d0(%rbp)
  402880:	0f 29 a5 40 ee ff ff 	movaps %xmm4,-0x11c0(%rbp)
  402887:	0f 29 9d 50 ee ff ff 	movaps %xmm3,-0x11b0(%rbp)
  40288e:	0f 29 95 60 ee ff ff 	movaps %xmm2,-0x11a0(%rbp)
  402895:	0f 29 8d 70 ee ff ff 	movaps %xmm1,-0x1190(%rbp)
  40289c:	0f 29 85 80 ee ff ff 	movaps %xmm0,-0x1180(%rbp)
  4028a3:	4c 89 8d 90 ee ff ff 	mov    %r9,-0x1170(%rbp)
  4028aa:	4c 89 85 98 ee ff ff 	mov    %r8,-0x1168(%rbp)
  4028b1:	48 89 8d a0 ee ff ff 	mov    %rcx,-0x1160(%rbp)
  4028b8:	48 89 95 a8 ee ff ff 	mov    %rdx,-0x1158(%rbp)
  4028bf:	48 89 b5 b0 ee ff ff 	mov    %rsi,-0x1150(%rbp)
  4028c6:	48 89 bd b8 ee ff ff 	mov    %rdi,-0x1148(%rbp)
  4028cd:	84 c0                	test   %al,%al
  4028cf:	0f 84 70 00 00 00    	je     402945 <ft_printf+0xe5>
  4028d5:	0f 28 85 10 ee ff ff 	movaps -0x11f0(%rbp),%xmm0
  4028dc:	0f 28 8d 20 ee ff ff 	movaps -0x11e0(%rbp),%xmm1
  4028e3:	0f 28 95 30 ee ff ff 	movaps -0x11d0(%rbp),%xmm2
  4028ea:	0f 28 9d 40 ee ff ff 	movaps -0x11c0(%rbp),%xmm3
  4028f1:	0f 28 a5 50 ee ff ff 	movaps -0x11b0(%rbp),%xmm4
  4028f8:	0f 28 ad 60 ee ff ff 	movaps -0x11a0(%rbp),%xmm5
  4028ff:	0f 28 b5 70 ee ff ff 	movaps -0x1190(%rbp),%xmm6
  402906:	0f 28 bd 80 ee ff ff 	movaps -0x1180(%rbp),%xmm7
  40290d:	0f 29 bd f0 ee ff ff 	movaps %xmm7,-0x1110(%rbp)
  402914:	0f 29 b5 00 ef ff ff 	movaps %xmm6,-0x1100(%rbp)
  40291b:	0f 29 ad 10 ef ff ff 	movaps %xmm5,-0x10f0(%rbp)
  402922:	0f 29 a5 20 ef ff ff 	movaps %xmm4,-0x10e0(%rbp)
  402929:	0f 29 9d 30 ef ff ff 	movaps %xmm3,-0x10d0(%rbp)
  402930:	0f 29 95 40 ef ff ff 	movaps %xmm2,-0x10c0(%rbp)
  402937:	0f 29 8d 50 ef ff ff 	movaps %xmm1,-0x10b0(%rbp)
  40293e:	0f 29 85 60 ef ff ff 	movaps %xmm0,-0x10a0(%rbp)
  402945:	48 8b 85 b8 ee ff ff 	mov    -0x1148(%rbp),%rax
  40294c:	48 8b 8d b0 ee ff ff 	mov    -0x1150(%rbp),%rcx
  402953:	48 8b 95 a8 ee ff ff 	mov    -0x1158(%rbp),%rdx
  40295a:	48 8b b5 a0 ee ff ff 	mov    -0x1160(%rbp),%rsi
  402961:	48 8b bd 98 ee ff ff 	mov    -0x1168(%rbp),%rdi
  402968:	4c 8b 85 90 ee ff ff 	mov    -0x1170(%rbp),%r8
  40296f:	4c 89 85 e8 ee ff ff 	mov    %r8,-0x1118(%rbp)
  402976:	48 89 bd e0 ee ff ff 	mov    %rdi,-0x1120(%rbp)
  40297d:	48 89 b5 d8 ee ff ff 	mov    %rsi,-0x1128(%rbp)
  402984:	48 89 95 d0 ee ff ff 	mov    %rdx,-0x1130(%rbp)
  40298b:	48 89 8d c8 ee ff ff 	mov    %rcx,-0x1138(%rbp)
  402992:	48 89 45 f0          	mov    %rax,-0x10(%rbp)
  402996:	b0 01                	mov    $0x1,%al
  402998:	48 83 7d f0 00       	cmpq   $0x0,-0x10(%rbp)
  40299d:	88 85 0f ee ff ff    	mov    %al,-0x11f1(%rbp)
  4029a3:	0f 84 25 00 00 00    	je     4029ce <ft_printf+0x16e>
  4029a9:	bf 01 00 00 00       	mov    $0x1,%edi
  4029ae:	48 be 35 82 40 00 00 	movabs $0x408235,%rsi
  4029b5:	00 00 00 
  4029b8:	31 c0                	xor    %eax,%eax
  4029ba:	89 c2                	mov    %eax,%edx
  4029bc:	e8 9f e6 ff ff       	call   401060 <write@plt>
  4029c1:	48 83 f8 ff          	cmp    $0xffffffffffffffff,%rax
  4029c5:	0f 94 c0             	sete   %al
  4029c8:	88 85 0f ee ff ff    	mov    %al,-0x11f1(%rbp)
  4029ce:	8a 85 0f ee ff ff    	mov    -0x11f1(%rbp),%al
  4029d4:	24 01                	and    $0x1,%al
  4029d6:	0f b6 c0             	movzbl %al,%eax
  4029d9:	48 98                	cltq   
  4029db:	48 83 f8 00          	cmp    $0x0,%rax
  4029df:	0f 84 0c 00 00 00    	je     4029f1 <ft_printf+0x191>
  4029e5:	c7 45 fc ff ff ff ff 	movl   $0xffffffff,-0x4(%rbp)
  4029ec:	e9 92 00 00 00       	jmp    402a83 <ft_printf+0x223>
  4029f1:	48 8d 45 d0          	lea    -0x30(%rbp),%rax
  4029f5:	48 8d 8d c0 ee ff ff 	lea    -0x1140(%rbp),%rcx
  4029fc:	48 89 48 10          	mov    %rcx,0x10(%rax)
  402a00:	48 8d 4d 10          	lea    0x10(%rbp),%rcx
  402a04:	48 89 48 08          	mov    %rcx,0x8(%rax)
  402a08:	c7 40 04 30 00 00 00 	movl   $0x30,0x4(%rax)
  402a0f:	c7 00 08 00 00 00    	movl   $0x8,(%rax)
  402a15:	48 8d bd a0 ef ff ff 	lea    -0x1060(%rbp),%rdi
  402a1c:	be 00 10 00 00       	mov    $0x1000,%esi
  402a21:	e8 4a 05 00 00       	call   402f70 <ft_bzero>
  402a26:	48 8d b5 a0 ef ff ff 	lea    -0x1060(%rbp),%rsi
  402a2d:	48 8d bd 78 ef ff ff 	lea    -0x1088(%rbp),%rdi
  402a34:	ba 01 00 00 00       	mov    $0x1,%edx
  402a39:	b9 00 10 00 00       	mov    $0x1000,%ecx
  402a3e:	e8 8d 05 00 00       	call   402fd0 <_init_print>
  402a43:	48 8d 7d a8          	lea    -0x58(%rbp),%rdi
  402a47:	48 8d b5 78 ef ff ff 	lea    -0x1088(%rbp),%rsi
  402a4e:	ba 28 00 00 00       	mov    $0x28,%edx
  402a53:	e8 98 e6 ff ff       	call   4010f0 <memcpy@plt>
  402a58:	48 8b 7d f0          	mov    -0x10(%rbp),%rdi
  402a5c:	48 8d 75 d0          	lea    -0x30(%rbp),%rsi
  402a60:	48 8d 55 a8          	lea    -0x58(%rbp),%rdx
  402a64:	e8 07 f9 ff ff       	call   402370 <write_loop>
  402a69:	8b 7d bc             	mov    -0x44(%rbp),%edi
  402a6c:	48 8b 75 a8          	mov    -0x58(%rbp),%rsi
  402a70:	48 63 55 b4          	movslq -0x4c(%rbp),%rdx
  402a74:	e8 e7 e5 ff ff       	call   401060 <write@plt>
  402a79:	48 8d 45 d0          	lea    -0x30(%rbp),%rax
  402a7d:	8b 45 b8             	mov    -0x48(%rbp),%eax
  402a80:	89 45 fc             	mov    %eax,-0x4(%rbp)
  402a83:	8b 45 fc             	mov    -0x4(%rbp),%eax
  402a86:	48 81 c4 00 12 00 00 	add    $0x1200,%rsp
  402a8d:	5d                   	pop    %rbp
  402a8e:	c3                   	ret    
  402a8f:	90                   	nop

0000000000402a90 <debug_printf>:
  402a90:	55                   	push   %rbp
  402a91:	48 89 e5             	mov    %rsp,%rbp
  402a94:	48 89 7d f8          	mov    %rdi,-0x8(%rbp)
  402a98:	31 c0                	xor    %eax,%eax
  402a9a:	5d                   	pop    %rbp
  402a9b:	c3                   	ret    
  402a9c:	0f 1f 40 00          	nopl   0x0(%rax)

0000000000402aa0 <ft_fprintf>:
  402aa0:	55                   	push   %rbp
  402aa1:	48 89 e5             	mov    %rsp,%rbp
  402aa4:	48 81 ec 00 12 00 00 	sub    $0x1200,%rsp
  402aab:	0f 29 bd 10 ee ff ff 	movaps %xmm7,-0x11f0(%rbp)
  402ab2:	0f 29 b5 20 ee ff ff 	movaps %xmm6,-0x11e0(%rbp)
  402ab9:	0f 29 ad 30 ee ff ff 	movaps %xmm5,-0x11d0(%rbp)
  402ac0:	0f 29 a5 40 ee ff ff 	movaps %xmm4,-0x11c0(%rbp)
  402ac7:	0f 29 9d 50 ee ff ff 	movaps %xmm3,-0x11b0(%rbp)
  402ace:	0f 29 95 60 ee ff ff 	movaps %xmm2,-0x11a0(%rbp)
  402ad5:	0f 29 8d 70 ee ff ff 	movaps %xmm1,-0x1190(%rbp)
  402adc:	0f 29 85 80 ee ff ff 	movaps %xmm0,-0x1180(%rbp)
  402ae3:	4c 89 8d 90 ee ff ff 	mov    %r9,-0x1170(%rbp)
  402aea:	4c 89 85 98 ee ff ff 	mov    %r8,-0x1168(%rbp)
  402af1:	48 89 8d a0 ee ff ff 	mov    %rcx,-0x1160(%rbp)
  402af8:	48 89 95 a8 ee ff ff 	mov    %rdx,-0x1158(%rbp)
  402aff:	48 89 b5 b0 ee ff ff 	mov    %rsi,-0x1150(%rbp)
  402b06:	89 bd bc ee ff ff    	mov    %edi,-0x1144(%rbp)
  402b0c:	84 c0                	test   %al,%al
  402b0e:	0f 84 70 00 00 00    	je     402b84 <ft_fprintf+0xe4>
  402b14:	0f 28 85 10 ee ff ff 	movaps -0x11f0(%rbp),%xmm0
  402b1b:	0f 28 8d 20 ee ff ff 	movaps -0x11e0(%rbp),%xmm1
  402b22:	0f 28 95 30 ee ff ff 	movaps -0x11d0(%rbp),%xmm2
  402b29:	0f 28 9d 40 ee ff ff 	movaps -0x11c0(%rbp),%xmm3
  402b30:	0f 28 a5 50 ee ff ff 	movaps -0x11b0(%rbp),%xmm4
  402b37:	0f 28 ad 60 ee ff ff 	movaps -0x11a0(%rbp),%xmm5
  402b3e:	0f 28 b5 70 ee ff ff 	movaps -0x1190(%rbp),%xmm6
  402b45:	0f 28 bd 80 ee ff ff 	movaps -0x1180(%rbp),%xmm7
  402b4c:	0f 29 bd f0 ee ff ff 	movaps %xmm7,-0x1110(%rbp)
  402b53:	0f 29 b5 00 ef ff ff 	movaps %xmm6,-0x1100(%rbp)
  402b5a:	0f 29 ad 10 ef ff ff 	movaps %xmm5,-0x10f0(%rbp)
  402b61:	0f 29 a5 20 ef ff ff 	movaps %xmm4,-0x10e0(%rbp)
  402b68:	0f 29 9d 30 ef ff ff 	movaps %xmm3,-0x10d0(%rbp)
  402b6f:	0f 29 95 40 ef ff ff 	movaps %xmm2,-0x10c0(%rbp)
  402b76:	0f 29 8d 50 ef ff ff 	movaps %xmm1,-0x10b0(%rbp)
  402b7d:	0f 29 85 60 ef ff ff 	movaps %xmm0,-0x10a0(%rbp)
  402b84:	48 8b 85 b0 ee ff ff 	mov    -0x1150(%rbp),%rax
  402b8b:	8b 8d bc ee ff ff    	mov    -0x1144(%rbp),%ecx
  402b91:	48 8b 95 a8 ee ff ff 	mov    -0x1158(%rbp),%rdx
  402b98:	48 8b b5 a0 ee ff ff 	mov    -0x1160(%rbp),%rsi
  402b9f:	48 8b bd 98 ee ff ff 	mov    -0x1168(%rbp),%rdi
  402ba6:	4c 8b 85 90 ee ff ff 	mov    -0x1170(%rbp),%r8
  402bad:	4c 89 85 e8 ee ff ff 	mov    %r8,-0x1118(%rbp)
  402bb4:	48 89 bd e0 ee ff ff 	mov    %rdi,-0x1120(%rbp)
  402bbb:	48 89 b5 d8 ee ff ff 	mov    %rsi,-0x1128(%rbp)
  402bc2:	48 89 95 d0 ee ff ff 	mov    %rdx,-0x1130(%rbp)
  402bc9:	89 4d f8             	mov    %ecx,-0x8(%rbp)
  402bcc:	48 89 45 f0          	mov    %rax,-0x10(%rbp)
  402bd0:	b0 01                	mov    $0x1,%al
  402bd2:	48 83 7d f0 00       	cmpq   $0x0,-0x10(%rbp)
  402bd7:	88 85 0f ee ff ff    	mov    %al,-0x11f1(%rbp)
  402bdd:	0f 84 35 00 00 00    	je     402c18 <ft_fprintf+0x178>
  402be3:	b0 01                	mov    $0x1,%al
  402be5:	83 7d f8 ff          	cmpl   $0xffffffff,-0x8(%rbp)
  402be9:	88 85 0f ee ff ff    	mov    %al,-0x11f1(%rbp)
  402bef:	0f 84 23 00 00 00    	je     402c18 <ft_fprintf+0x178>
  402bf5:	8b 7d f8             	mov    -0x8(%rbp),%edi
  402bf8:	48 be 35 82 40 00 00 	movabs $0x408235,%rsi
  402bff:	00 00 00 
  402c02:	31 c0                	xor    %eax,%eax
  402c04:	89 c2                	mov    %eax,%edx
  402c06:	e8 55 e4 ff ff       	call   401060 <write@plt>
  402c0b:	48 83 f8 ff          	cmp    $0xffffffffffffffff,%rax
  402c0f:	0f 94 c0             	sete   %al
  402c12:	88 85 0f ee ff ff    	mov    %al,-0x11f1(%rbp)
  402c18:	8a 85 0f ee ff ff    	mov    -0x11f1(%rbp),%al
  402c1e:	24 01                	and    $0x1,%al
  402c20:	0f b6 c0             	movzbl %al,%eax
  402c23:	48 98                	cltq   
  402c25:	48 83 f8 00          	cmp    $0x0,%rax
  402c29:	0f 84 0c 00 00 00    	je     402c3b <ft_fprintf+0x19b>
  402c2f:	c7 45 fc ff ff ff ff 	movl   $0xffffffff,-0x4(%rbp)
  402c36:	e9 90 00 00 00       	jmp    402ccb <ft_fprintf+0x22b>
  402c3b:	48 8d 45 d0          	lea    -0x30(%rbp),%rax
  402c3f:	48 8d 8d c0 ee ff ff 	lea    -0x1140(%rbp),%rcx
  402c46:	48 89 48 10          	mov    %rcx,0x10(%rax)
  402c4a:	48 8d 4d 10          	lea    0x10(%rbp),%rcx
  402c4e:	48 89 48 08          	mov    %rcx,0x8(%rax)
  402c52:	c7 40 04 30 00 00 00 	movl   $0x30,0x4(%rax)
  402c59:	c7 00 10 00 00 00    	movl   $0x10,(%rax)
  402c5f:	48 8d bd a0 ef ff ff 	lea    -0x1060(%rbp),%rdi
  402c66:	be 00 10 00 00       	mov    $0x1000,%esi
  402c6b:	e8 00 03 00 00       	call   402f70 <ft_bzero>
  402c70:	48 8d b5 a0 ef ff ff 	lea    -0x1060(%rbp),%rsi
  402c77:	8b 55 f8             	mov    -0x8(%rbp),%edx
  402c7a:	48 8d bd 78 ef ff ff 	lea    -0x1088(%rbp),%rdi
  402c81:	b9 00 10 00 00       	mov    $0x1000,%ecx
  402c86:	e8 45 03 00 00       	call   402fd0 <_init_print>
  402c8b:	48 8d 7d a8          	lea    -0x58(%rbp),%rdi
  402c8f:	48 8d b5 78 ef ff ff 	lea    -0x1088(%rbp),%rsi
  402c96:	ba 28 00 00 00       	mov    $0x28,%edx
  402c9b:	e8 50 e4 ff ff       	call   4010f0 <memcpy@plt>
  402ca0:	48 8b 7d f0          	mov    -0x10(%rbp),%rdi
  402ca4:	48 8d 75 d0          	lea    -0x30(%rbp),%rsi
  402ca8:	48 8d 55 a8          	lea    -0x58(%rbp),%rdx
  402cac:	e8 bf f6 ff ff       	call   402370 <write_loop>
  402cb1:	8b 7d bc             	mov    -0x44(%rbp),%edi
  402cb4:	48 8b 75 a8          	mov    -0x58(%rbp),%rsi
  402cb8:	48 63 55 b4          	movslq -0x4c(%rbp),%rdx
  402cbc:	e8 9f e3 ff ff       	call   401060 <write@plt>
  402cc1:	48 8d 45 d0          	lea    -0x30(%rbp),%rax
  402cc5:	8b 45 b8             	mov    -0x48(%rbp),%eax
  402cc8:	89 45 fc             	mov    %eax,-0x4(%rbp)
  402ccb:	8b 45 fc             	mov    -0x4(%rbp),%eax
  402cce:	48 81 c4 00 12 00 00 	add    $0x1200,%rsp
  402cd5:	5d                   	pop    %rbp
  402cd6:	c3                   	ret    
  402cd7:	66 0f 1f 84 00 00 00 	nopw   0x0(%rax,%rax,1)
  402cde:	00 00 

0000000000402ce0 <ft_sprintf>:
  402ce0:	55                   	push   %rbp
  402ce1:	48 89 e5             	mov    %rsp,%rbp
  402ce4:	48 81 ec f0 01 00 00 	sub    $0x1f0,%rsp
  402ceb:	0f 29 bd 20 fe ff ff 	movaps %xmm7,-0x1e0(%rbp)
  402cf2:	0f 29 b5 30 fe ff ff 	movaps %xmm6,-0x1d0(%rbp)
  402cf9:	0f 29 ad 40 fe ff ff 	movaps %xmm5,-0x1c0(%rbp)
  402d00:	0f 29 a5 50 fe ff ff 	movaps %xmm4,-0x1b0(%rbp)
  402d07:	0f 29 9d 60 fe ff ff 	movaps %xmm3,-0x1a0(%rbp)
  402d0e:	0f 29 95 70 fe ff ff 	movaps %xmm2,-0x190(%rbp)
  402d15:	0f 29 8d 80 fe ff ff 	movaps %xmm1,-0x180(%rbp)
  402d1c:	0f 29 85 90 fe ff ff 	movaps %xmm0,-0x170(%rbp)
  402d23:	4c 89 8d a0 fe ff ff 	mov    %r9,-0x160(%rbp)
  402d2a:	4c 89 85 a8 fe ff ff 	mov    %r8,-0x158(%rbp)
  402d31:	48 89 8d b0 fe ff ff 	mov    %rcx,-0x150(%rbp)
  402d38:	48 89 95 b8 fe ff ff 	mov    %rdx,-0x148(%rbp)
  402d3f:	48 89 b5 c0 fe ff ff 	mov    %rsi,-0x140(%rbp)
  402d46:	48 89 bd c8 fe ff ff 	mov    %rdi,-0x138(%rbp)
  402d4d:	84 c0                	test   %al,%al
  402d4f:	0f 84 70 00 00 00    	je     402dc5 <ft_sprintf+0xe5>
  402d55:	0f 28 85 20 fe ff ff 	movaps -0x1e0(%rbp),%xmm0
  402d5c:	0f 28 8d 30 fe ff ff 	movaps -0x1d0(%rbp),%xmm1
  402d63:	0f 28 95 40 fe ff ff 	movaps -0x1c0(%rbp),%xmm2
  402d6a:	0f 28 9d 50 fe ff ff 	movaps -0x1b0(%rbp),%xmm3
  402d71:	0f 28 a5 60 fe ff ff 	movaps -0x1a0(%rbp),%xmm4
  402d78:	0f 28 ad 70 fe ff ff 	movaps -0x190(%rbp),%xmm5
  402d7f:	0f 28 b5 80 fe ff ff 	movaps -0x180(%rbp),%xmm6
  402d86:	0f 28 bd 90 fe ff ff 	movaps -0x170(%rbp),%xmm7
  402d8d:	0f 29 bd 00 ff ff ff 	movaps %xmm7,-0x100(%rbp)
  402d94:	0f 29 b5 10 ff ff ff 	movaps %xmm6,-0xf0(%rbp)
  402d9b:	0f 29 ad 20 ff ff ff 	movaps %xmm5,-0xe0(%rbp)
  402da2:	0f 29 a5 30 ff ff ff 	movaps %xmm4,-0xd0(%rbp)
  402da9:	0f 29 9d 40 ff ff ff 	movaps %xmm3,-0xc0(%rbp)
  402db0:	0f 29 95 50 ff ff ff 	movaps %xmm2,-0xb0(%rbp)
  402db7:	0f 29 8d 60 ff ff ff 	movaps %xmm1,-0xa0(%rbp)
  402dbe:	0f 29 85 70 ff ff ff 	movaps %xmm0,-0x90(%rbp)
  402dc5:	48 8b 85 c0 fe ff ff 	mov    -0x140(%rbp),%rax
  402dcc:	48 8b 8d c8 fe ff ff 	mov    -0x138(%rbp),%rcx
  402dd3:	48 8b 95 b8 fe ff ff 	mov    -0x148(%rbp),%rdx
  402dda:	48 8b b5 b0 fe ff ff 	mov    -0x150(%rbp),%rsi
  402de1:	48 8b bd a8 fe ff ff 	mov    -0x158(%rbp),%rdi
  402de8:	4c 8b 85 a0 fe ff ff 	mov    -0x160(%rbp),%r8
  402def:	4c 89 85 f8 fe ff ff 	mov    %r8,-0x108(%rbp)
  402df6:	48 89 bd f0 fe ff ff 	mov    %rdi,-0x110(%rbp)
  402dfd:	48 89 b5 e8 fe ff ff 	mov    %rsi,-0x118(%rbp)
  402e04:	48 89 95 e0 fe ff ff 	mov    %rdx,-0x120(%rbp)
  402e0b:	48 89 4d f0          	mov    %rcx,-0x10(%rbp)
  402e0f:	48 89 45 e8          	mov    %rax,-0x18(%rbp)
  402e13:	b0 01                	mov    $0x1,%al
  402e15:	48 83 7d e8 00       	cmpq   $0x0,-0x18(%rbp)
  402e1a:	88 85 1f fe ff ff    	mov    %al,-0x1e1(%rbp)
  402e20:	0f 84 25 00 00 00    	je     402e4b <ft_sprintf+0x16b>
  402e26:	bf 01 00 00 00       	mov    $0x1,%edi
  402e2b:	48 be 35 82 40 00 00 	movabs $0x408235,%rsi
  402e32:	00 00 00 
  402e35:	31 c0                	xor    %eax,%eax
  402e37:	89 c2                	mov    %eax,%edx
  402e39:	e8 22 e2 ff ff       	call   401060 <write@plt>
  402e3e:	48 83 f8 ff          	cmp    $0xffffffffffffffff,%rax
  402e42:	0f 94 c0             	sete   %al
  402e45:	88 85 1f fe ff ff    	mov    %al,-0x1e1(%rbp)
  402e4b:	8a 85 1f fe ff ff    	mov    -0x1e1(%rbp),%al
  402e51:	24 01                	and    $0x1,%al
  402e53:	0f b6 c0             	movzbl %al,%eax
  402e56:	48 98                	cltq   
  402e58:	48 83 f8 00          	cmp    $0x0,%rax
  402e5c:	0f 84 0c 00 00 00    	je     402e6e <ft_sprintf+0x18e>
  402e62:	c7 45 fc ff ff ff ff 	movl   $0xffffffff,-0x4(%rbp)
  402e69:	e9 86 00 00 00       	jmp    402ef4 <ft_sprintf+0x214>
  402e6e:	48 8d 45 d0          	lea    -0x30(%rbp),%rax
  402e72:	48 8d 8d d0 fe ff ff 	lea    -0x130(%rbp),%rcx
  402e79:	48 89 48 10          	mov    %rcx,0x10(%rax)
  402e7d:	48 8d 4d 10          	lea    0x10(%rbp),%rcx
  402e81:	48 89 48 08          	mov    %rcx,0x8(%rax)
  402e85:	c7 40 04 30 00 00 00 	movl   $0x30,0x4(%rax)
  402e8c:	c7 00 10 00 00 00    	movl   $0x10,(%rax)
  402e92:	48 8b 7d f0          	mov    -0x10(%rbp),%rdi
  402e96:	be 00 10 00 00       	mov    $0x1000,%esi
  402e9b:	e8 d0 00 00 00       	call   402f70 <ft_bzero>
  402ea0:	48 8b 75 f0          	mov    -0x10(%rbp),%rsi
  402ea4:	48 8d 7d 80          	lea    -0x80(%rbp),%rdi
  402ea8:	ba 01 00 00 00       	mov    $0x1,%edx
  402ead:	b9 00 10 00 00       	mov    $0x1000,%ecx
  402eb2:	e8 19 01 00 00       	call   402fd0 <_init_print>
  402eb7:	48 8d 7d a8          	lea    -0x58(%rbp),%rdi
  402ebb:	48 8d 75 80          	lea    -0x80(%rbp),%rsi
  402ebf:	ba 28 00 00 00       	mov    $0x28,%edx
  402ec4:	e8 27 e2 ff ff       	call   4010f0 <memcpy@plt>
  402ec9:	48 8b 7d e8          	mov    -0x18(%rbp),%rdi
  402ecd:	48 8d 75 d0          	lea    -0x30(%rbp),%rsi
  402ed1:	48 8d 55 a8          	lea    -0x58(%rbp),%rdx
  402ed5:	e8 96 f4 ff ff       	call   402370 <write_loop>
  402eda:	8b 7d bc             	mov    -0x44(%rbp),%edi
  402edd:	48 8b 75 a8          	mov    -0x58(%rbp),%rsi
  402ee1:	48 63 55 b4          	movslq -0x4c(%rbp),%rdx
  402ee5:	e8 76 e1 ff ff       	call   401060 <write@plt>
  402eea:	48 8d 45 d0          	lea    -0x30(%rbp),%rax
  402eee:	8b 45 b8             	mov    -0x48(%rbp),%eax
  402ef1:	89 45 fc             	mov    %eax,-0x4(%rbp)
  402ef4:	8b 45 fc             	mov    -0x4(%rbp),%eax
  402ef7:	48 81 c4 f0 01 00 00 	add    $0x1f0,%rsp
  402efe:	5d                   	pop    %rbp
  402eff:	c3                   	ret    

0000000000402f00 <printf_strlen>:
  402f00:	55                   	push   %rbp
  402f01:	48 89 e5             	mov    %rsp,%rbp
  402f04:	48 89 7d f0          	mov    %rdi,-0x10(%rbp)
  402f08:	48 83 7d f0 00       	cmpq   $0x0,-0x10(%rbp)
  402f0d:	0f 95 c0             	setne  %al
  402f10:	34 ff                	xor    $0xff,%al
  402f12:	24 01                	and    $0x1,%al
  402f14:	0f b6 c0             	movzbl %al,%eax
  402f17:	48 98                	cltq   
  402f19:	48 83 f8 00          	cmp    $0x0,%rax
  402f1d:	0f 84 0c 00 00 00    	je     402f2f <printf_strlen+0x2f>
  402f23:	c7 45 fc 00 00 00 00 	movl   $0x0,-0x4(%rbp)
  402f2a:	e9 2d 00 00 00       	jmp    402f5c <printf_strlen+0x5c>
  402f2f:	c7 45 ec 00 00 00 00 	movl   $0x0,-0x14(%rbp)
  402f36:	48 8b 45 f0          	mov    -0x10(%rbp),%rax
  402f3a:	48 63 4d ec          	movslq -0x14(%rbp),%rcx
  402f3e:	80 3c 08 00          	cmpb   $0x0,(%rax,%rcx,1)
  402f42:	0f 84 0e 00 00 00    	je     402f56 <printf_strlen+0x56>
  402f48:	8b 45 ec             	mov    -0x14(%rbp),%eax
  402f4b:	83 c0 01             	add    $0x1,%eax
  402f4e:	89 45 ec             	mov    %eax,-0x14(%rbp)
  402f51:	e9 e0 ff ff ff       	jmp    402f36 <printf_strlen+0x36>
  402f56:	8b 45 ec             	mov    -0x14(%rbp),%eax
  402f59:	89 45 fc             	mov    %eax,-0x4(%rbp)
  402f5c:	8b 45 fc             	mov    -0x4(%rbp),%eax
  402f5f:	5d                   	pop    %rbp
  402f60:	c3                   	ret    
  402f61:	66 2e 0f 1f 84 00 00 	cs nopw 0x0(%rax,%rax,1)
  402f68:	00 00 00 
  402f6b:	0f 1f 44 00 00       	nopl   0x0(%rax,%rax,1)

0000000000402f70 <ft_bzero>:
  402f70:	55                   	push   %rbp
  402f71:	48 89 e5             	mov    %rsp,%rbp
  402f74:	48 89 7d f8          	mov    %rdi,-0x8(%rbp)
  402f78:	89 75 f4             	mov    %esi,-0xc(%rbp)
  402f7b:	48 83 7d f8 00       	cmpq   $0x0,-0x8(%rbp)
  402f80:	0f 95 c0             	setne  %al
  402f83:	34 ff                	xor    $0xff,%al
  402f85:	24 01                	and    $0x1,%al
  402f87:	0f b6 c0             	movzbl %al,%eax
  402f8a:	48 98                	cltq   
  402f8c:	48 83 f8 00          	cmp    $0x0,%rax
  402f90:	0f 84 05 00 00 00    	je     402f9b <ft_bzero+0x2b>
  402f96:	e9 2a 00 00 00       	jmp    402fc5 <ft_bzero+0x55>
  402f9b:	c7 45 f0 ff ff ff ff 	movl   $0xffffffff,-0x10(%rbp)
  402fa2:	8b 45 f0             	mov    -0x10(%rbp),%eax
  402fa5:	83 c0 01             	add    $0x1,%eax
  402fa8:	89 45 f0             	mov    %eax,-0x10(%rbp)
  402fab:	3b 45 f4             	cmp    -0xc(%rbp),%eax
  402fae:	0f 8d 11 00 00 00    	jge    402fc5 <ft_bzero+0x55>
  402fb4:	48 8b 45 f8          	mov    -0x8(%rbp),%rax
  402fb8:	48 63 4d f0          	movslq -0x10(%rbp),%rcx
  402fbc:	c6 04 08 00          	movb   $0x0,(%rax,%rcx,1)
  402fc0:	e9 dd ff ff ff       	jmp    402fa2 <ft_bzero+0x32>
  402fc5:	5d                   	pop    %rbp
  402fc6:	c3                   	ret    
  402fc7:	66 0f 1f 84 00 00 00 	nopw   0x0(%rax,%rax,1)
  402fce:	00 00 

0000000000402fd0 <_init_print>:
  402fd0:	55                   	push   %rbp
  402fd1:	48 89 e5             	mov    %rsp,%rbp
  402fd4:	48 89 f8             	mov    %rdi,%rax
  402fd7:	48 89 75 f8          	mov    %rsi,-0x8(%rbp)
  402fdb:	89 55 f4             	mov    %edx,-0xc(%rbp)
  402fde:	89 4d f0             	mov    %ecx,-0x10(%rbp)
  402fe1:	48 8b 4d f8          	mov    -0x8(%rbp),%rcx
  402fe5:	48 89 0f             	mov    %rcx,(%rdi)
  402fe8:	8b 4d f0             	mov    -0x10(%rbp),%ecx
  402feb:	89 4f 08             	mov    %ecx,0x8(%rdi)
  402fee:	c7 47 0c 00 00 00 00 	movl   $0x0,0xc(%rdi)
  402ff5:	c7 47 10 00 00 00 00 	movl   $0x0,0x10(%rdi)
  402ffc:	8b 4d f4             	mov    -0xc(%rbp),%ecx
  402fff:	89 4f 14             	mov    %ecx,0x14(%rdi)
  403002:	c6 47 18 00          	movb   $0x0,0x18(%rdi)
  403006:	48 b9 60 1e 40 00 00 	movabs $0x401e60,%rcx
  40300d:	00 00 00 
  403010:	48 89 4f 20          	mov    %rcx,0x20(%rdi)
  403014:	5d                   	pop    %rbp
  403015:	c3                   	ret    
  403016:	66 2e 0f 1f 84 00 00 	cs nopw 0x0(%rax,%rax,1)
  40301d:	00 00 00 

0000000000403020 <writestr>:
  403020:	55                   	push   %rbp
  403021:	48 89 e5             	mov    %rsp,%rbp
  403024:	48 83 ec 20          	sub    $0x20,%rsp
  403028:	48 89 7d f0          	mov    %rdi,-0x10(%rbp)
  40302c:	48 89 75 e8          	mov    %rsi,-0x18(%rbp)
  403030:	48 83 7d f0 00       	cmpq   $0x0,-0x10(%rbp)
  403035:	0f 95 c0             	setne  %al
  403038:	34 ff                	xor    $0xff,%al
  40303a:	24 01                	and    $0x1,%al
  40303c:	0f b6 c0             	movzbl %al,%eax
  40303f:	48 98                	cltq   
  403041:	48 83 f8 00          	cmp    $0x0,%rax
  403045:	0f 84 1b 00 00 00    	je     403066 <writestr+0x46>
  40304b:	48 8b 75 e8          	mov    -0x18(%rbp),%rsi
  40304f:	48 bf e3 81 40 00 00 	movabs $0x4081e3,%rdi
  403056:	00 00 00 
  403059:	e8 c2 ff ff ff       	call   403020 <writestr>
  40305e:	89 45 fc             	mov    %eax,-0x4(%rbp)
  403061:	e9 49 00 00 00       	jmp    4030af <writestr+0x8f>
  403066:	c7 45 e4 ff ff ff ff 	movl   $0xffffffff,-0x1c(%rbp)
  40306d:	48 8b 45 f0          	mov    -0x10(%rbp),%rax
  403071:	8b 4d e4             	mov    -0x1c(%rbp),%ecx
  403074:	83 c1 01             	add    $0x1,%ecx
  403077:	89 4d e4             	mov    %ecx,-0x1c(%rbp)
  40307a:	89 c9                	mov    %ecx,%ecx
  40307c:	80 3c 08 00          	cmpb   $0x0,(%rax,%rcx,1)
  403080:	0f 84 1e 00 00 00    	je     4030a4 <writestr+0x84>
  403086:	48 8b 45 e8          	mov    -0x18(%rbp),%rax
  40308a:	48 8b 40 20          	mov    0x20(%rax),%rax
  40308e:	48 8b 7d e8          	mov    -0x18(%rbp),%rdi
  403092:	48 8b 4d f0          	mov    -0x10(%rbp),%rcx
  403096:	8b 55 e4             	mov    -0x1c(%rbp),%edx
  403099:	0f be 34 11          	movsbl (%rcx,%rdx,1),%esi
  40309d:	ff d0                	call   *%rax
  40309f:	e9 c9 ff ff ff       	jmp    40306d <writestr+0x4d>
  4030a4:	e9 00 00 00 00       	jmp    4030a9 <writestr+0x89>
  4030a9:	8b 45 e4             	mov    -0x1c(%rbp),%eax
  4030ac:	89 45 fc             	mov    %eax,-0x4(%rbp)
  4030af:	8b 45 fc             	mov    -0x4(%rbp),%eax
  4030b2:	48 83 c4 20          	add    $0x20,%rsp
  4030b6:	5d                   	pop    %rbp
  4030b7:	c3                   	ret    
  4030b8:	0f 1f 84 00 00 00 00 	nopl   0x0(%rax,%rax,1)
  4030bf:	00 

00000000004030c0 <writehex>:
  4030c0:	55                   	push   %rbp
  4030c1:	48 89 e5             	mov    %rsp,%rbp
  4030c4:	48 83 ec 50          	sub    $0x50,%rsp
  4030c8:	48 89 7d f0          	mov    %rdi,-0x10(%rbp)
  4030cc:	48 89 75 e8          	mov    %rsi,-0x18(%rbp)
  4030d0:	48 89 55 e0          	mov    %rdx,-0x20(%rbp)
  4030d4:	48 83 7d f0 00       	cmpq   $0x0,-0x10(%rbp)
  4030d9:	0f 94 c0             	sete   %al
  4030dc:	24 01                	and    $0x1,%al
  4030de:	0f b6 c0             	movzbl %al,%eax
  4030e1:	48 98                	cltq   
  4030e3:	48 83 f8 00          	cmp    $0x0,%rax
  4030e7:	0f 84 1b 00 00 00    	je     403108 <writehex+0x48>
  4030ed:	48 8b 45 e8          	mov    -0x18(%rbp),%rax
  4030f1:	48 8b 40 20          	mov    0x20(%rax),%rax
  4030f5:	48 8b 7d e8          	mov    -0x18(%rbp),%rdi
  4030f9:	be 30 00 00 00       	mov    $0x30,%esi
  4030fe:	ff d0                	call   *%rax
  403100:	89 45 fc             	mov    %eax,-0x4(%rbp)
  403103:	e9 7f 00 00 00       	jmp    403187 <writehex+0xc7>
  403108:	c6 45 bf 1f          	movb   $0x1f,-0x41(%rbp)
  40310c:	48 83 7d f0 00       	cmpq   $0x0,-0x10(%rbp)
  403111:	0f 86 33 00 00 00    	jbe    40314a <writehex+0x8a>
  403117:	48 8b 45 e0          	mov    -0x20(%rbp),%rax
  40311b:	48 8b 4d f0          	mov    -0x10(%rbp),%rcx
  40311f:	48 83 e1 0f          	and    $0xf,%rcx
  403123:	8a 0c 08             	mov    (%rax,%rcx,1),%cl
  403126:	8a 45 bf             	mov    -0x41(%rbp),%al
  403129:	88 c2                	mov    %al,%dl
  40312b:	80 c2 ff             	add    $0xff,%dl
  40312e:	88 55 bf             	mov    %dl,-0x41(%rbp)
  403131:	48 0f be c0          	movsbq %al,%rax
  403135:	88 4c 05 c0          	mov    %cl,-0x40(%rbp,%rax,1)
  403139:	48 8b 45 f0          	mov    -0x10(%rbp),%rax
  40313d:	48 c1 e8 04          	shr    $0x4,%rax
  403141:	48 89 45 f0          	mov    %rax,-0x10(%rbp)
  403145:	e9 c2 ff ff ff       	jmp    40310c <writehex+0x4c>
  40314a:	e9 00 00 00 00       	jmp    40314f <writehex+0x8f>
  40314f:	8a 45 bf             	mov    -0x41(%rbp),%al
  403152:	04 01                	add    $0x1,%al
  403154:	88 45 bf             	mov    %al,-0x41(%rbp)
  403157:	0f be c0             	movsbl %al,%eax
  40315a:	83 f8 20             	cmp    $0x20,%eax
  40315d:	0f 8d 1d 00 00 00    	jge    403180 <writehex+0xc0>
  403163:	48 8b 45 e8          	mov    -0x18(%rbp),%rax
  403167:	48 8b 40 20          	mov    0x20(%rax),%rax
  40316b:	48 8b 7d e8          	mov    -0x18(%rbp),%rdi
  40316f:	48 0f be 4d bf       	movsbq -0x41(%rbp),%rcx
  403174:	0f be 74 0d c0       	movsbl -0x40(%rbp,%rcx,1),%esi
  403179:	ff d0                	call   *%rax
  40317b:	e9 cf ff ff ff       	jmp    40314f <writehex+0x8f>
  403180:	c7 45 fc 01 00 00 00 	movl   $0x1,-0x4(%rbp)
  403187:	8b 45 fc             	mov    -0x4(%rbp),%eax
  40318a:	48 83 c4 50          	add    $0x50,%rsp
  40318e:	5d                   	pop    %rbp
  40318f:	c3                   	ret    

0000000000403190 <writeptr>:
  403190:	55                   	push   %rbp
  403191:	48 89 e5             	mov    %rsp,%rbp
  403194:	48 83 ec 20          	sub    $0x20,%rsp
  403198:	48 89 7d f0          	mov    %rdi,-0x10(%rbp)
  40319c:	48 89 75 e8          	mov    %rsi,-0x18(%rbp)
  4031a0:	48 8b 45 f0          	mov    -0x10(%rbp),%rax
  4031a4:	48 89 45 e0          	mov    %rax,-0x20(%rbp)
  4031a8:	48 83 7d f0 00       	cmpq   $0x0,-0x10(%rbp)
  4031ad:	0f 95 c0             	setne  %al
  4031b0:	34 ff                	xor    $0xff,%al
  4031b2:	24 01                	and    $0x1,%al
  4031b4:	0f b6 c0             	movzbl %al,%eax
  4031b7:	48 98                	cltq   
  4031b9:	48 83 f8 00          	cmp    $0x0,%rax
  4031bd:	0f 84 1b 00 00 00    	je     4031de <writeptr+0x4e>
  4031c3:	48 8b 75 e8          	mov    -0x18(%rbp),%rsi
  4031c7:	48 bf ea 81 40 00 00 	movabs $0x4081ea,%rdi
  4031ce:	00 00 00 
  4031d1:	e8 4a fe ff ff       	call   403020 <writestr>
  4031d6:	89 45 fc             	mov    %eax,-0x4(%rbp)
  4031d9:	e9 4c 00 00 00       	jmp    40322a <writeptr+0x9a>
  4031de:	48 8b 75 e8          	mov    -0x18(%rbp),%rsi
  4031e2:	48 bf f0 81 40 00 00 	movabs $0x4081f0,%rdi
  4031e9:	00 00 00 
  4031ec:	e8 2f fe ff ff       	call   403020 <writestr>
  4031f1:	48 8b 45 e8          	mov    -0x18(%rbp),%rax
  4031f5:	48 0f be 40 18       	movsbq 0x18(%rax),%rax
  4031fa:	48 83 f8 00          	cmp    $0x0,%rax
  4031fe:	0f 84 0c 00 00 00    	je     403210 <writeptr+0x80>
  403204:	c7 45 fc ff ff ff ff 	movl   $0xffffffff,-0x4(%rbp)
  40320b:	e9 1a 00 00 00       	jmp    40322a <writeptr+0x9a>
  403210:	48 8b 7d e0          	mov    -0x20(%rbp),%rdi
  403214:	48 8b 75 e8          	mov    -0x18(%rbp),%rsi
  403218:	48 ba c1 81 40 00 00 	movabs $0x4081c1,%rdx
  40321f:	00 00 00 
  403222:	e8 99 fe ff ff       	call   4030c0 <writehex>
  403227:	89 45 fc             	mov    %eax,-0x4(%rbp)
  40322a:	8b 45 fc             	mov    -0x4(%rbp),%eax
  40322d:	48 83 c4 20          	add    $0x20,%rsp
  403231:	5d                   	pop    %rbp
  403232:	c3                   	ret    
  403233:	66 2e 0f 1f 84 00 00 	cs nopw 0x0(%rax,%rax,1)
  40323a:	00 00 00 
  40323d:	0f 1f 00             	nopl   (%rax)

0000000000403240 <writedec>:
  403240:	55                   	push   %rbp
  403241:	48 89 e5             	mov    %rsp,%rbp
  403244:	48 83 ec 30          	sub    $0x30,%rsp
  403248:	48 89 7d f0          	mov    %rdi,-0x10(%rbp)
  40324c:	48 89 75 e8          	mov    %rsi,-0x18(%rbp)
  403250:	48 b8 00 00 00 00 00 	movabs $0x8000000000000000,%rax
  403257:	00 00 80 
  40325a:	48 39 45 f0          	cmp    %rax,-0x10(%rbp)
  40325e:	0f 94 c0             	sete   %al
  403261:	24 01                	and    $0x1,%al
  403263:	0f b6 c0             	movzbl %al,%eax
  403266:	48 98                	cltq   
  403268:	48 83 f8 00          	cmp    $0x0,%rax
  40326c:	0f 84 1b 00 00 00    	je     40328d <writedec+0x4d>
  403272:	48 8b 75 e8          	mov    -0x18(%rbp),%rsi
  403276:	48 bf f3 81 40 00 00 	movabs $0x4081f3,%rdi
  40327d:	00 00 00 
  403280:	e8 9b fd ff ff       	call   403020 <writestr>
  403285:	89 45 fc             	mov    %eax,-0x4(%rbp)
  403288:	e9 fc 00 00 00       	jmp    403389 <writedec+0x149>
  40328d:	48 83 7d f0 00       	cmpq   $0x0,-0x10(%rbp)
  403292:	0f 94 c0             	sete   %al
  403295:	24 01                	and    $0x1,%al
  403297:	0f b6 c0             	movzbl %al,%eax
  40329a:	48 98                	cltq   
  40329c:	48 83 f8 00          	cmp    $0x0,%rax
  4032a0:	0f 84 1b 00 00 00    	je     4032c1 <writedec+0x81>
  4032a6:	48 8b 45 e8          	mov    -0x18(%rbp),%rax
  4032aa:	48 8b 40 20          	mov    0x20(%rax),%rax
  4032ae:	48 8b 7d e8          	mov    -0x18(%rbp),%rdi
  4032b2:	be 30 00 00 00       	mov    $0x30,%esi
  4032b7:	ff d0                	call   *%rax
  4032b9:	89 45 fc             	mov    %eax,-0x4(%rbp)
  4032bc:	e9 c8 00 00 00       	jmp    403389 <writedec+0x149>
  4032c1:	48 83 7d f0 00       	cmpq   $0x0,-0x10(%rbp)
  4032c6:	0f 8d 21 00 00 00    	jge    4032ed <writedec+0xad>
  4032cc:	48 6b 45 f0 ff       	imul   $0xffffffffffffffff,-0x10(%rbp),%rax
  4032d1:	48 89 45 d0          	mov    %rax,-0x30(%rbp)
  4032d5:	48 8b 45 e8          	mov    -0x18(%rbp),%rax
  4032d9:	48 8b 40 20          	mov    0x20(%rax),%rax
  4032dd:	48 8b 7d e8          	mov    -0x18(%rbp),%rdi
  4032e1:	be 2d 00 00 00       	mov    $0x2d,%esi
  4032e6:	ff d0                	call   *%rax
  4032e8:	e9 08 00 00 00       	jmp    4032f5 <writedec+0xb5>
  4032ed:	48 8b 45 f0          	mov    -0x10(%rbp),%rax
  4032f1:	48 89 45 d0          	mov    %rax,-0x30(%rbp)
  4032f5:	e9 00 00 00 00       	jmp    4032fa <writedec+0xba>
  4032fa:	e9 00 00 00 00       	jmp    4032ff <writedec+0xbf>
  4032ff:	c6 45 dd 09          	movb   $0x9,-0x23(%rbp)
  403303:	48 83 7d d0 00       	cmpq   $0x0,-0x30(%rbp)
  403308:	0f 86 3e 00 00 00    	jbe    40334c <writedec+0x10c>
  40330e:	48 8b 45 d0          	mov    -0x30(%rbp),%rax
  403312:	b9 0a 00 00 00       	mov    $0xa,%ecx
  403317:	31 d2                	xor    %edx,%edx
  403319:	48 f7 f1             	div    %rcx
  40331c:	48 83 c2 30          	add    $0x30,%rdx
  403320:	88 d1                	mov    %dl,%cl
  403322:	8a 45 dd             	mov    -0x23(%rbp),%al
  403325:	88 c2                	mov    %al,%dl
  403327:	80 c2 ff             	add    $0xff,%dl
  40332a:	88 55 dd             	mov    %dl,-0x23(%rbp)
  40332d:	48 0f be c0          	movsbq %al,%rax
  403331:	88 4c 05 de          	mov    %cl,-0x22(%rbp,%rax,1)
  403335:	48 8b 45 d0          	mov    -0x30(%rbp),%rax
  403339:	b9 0a 00 00 00       	mov    $0xa,%ecx
  40333e:	31 d2                	xor    %edx,%edx
  403340:	48 f7 f1             	div    %rcx
  403343:	48 89 45 d0          	mov    %rax,-0x30(%rbp)
  403347:	e9 b7 ff ff ff       	jmp    403303 <writedec+0xc3>
  40334c:	e9 00 00 00 00       	jmp    403351 <writedec+0x111>
  403351:	8a 45 dd             	mov    -0x23(%rbp),%al
  403354:	04 01                	add    $0x1,%al
  403356:	88 45 dd             	mov    %al,-0x23(%rbp)
  403359:	0f be c0             	movsbl %al,%eax
  40335c:	83 f8 0a             	cmp    $0xa,%eax
  40335f:	0f 8d 1d 00 00 00    	jge    403382 <writedec+0x142>
  403365:	48 8b 45 e8          	mov    -0x18(%rbp),%rax
  403369:	48 8b 40 20          	mov    0x20(%rax),%rax
  40336d:	48 8b 7d e8          	mov    -0x18(%rbp),%rdi
  403371:	48 0f be 4d dd       	movsbq -0x23(%rbp),%rcx
  403376:	0f be 74 0d de       	movsbl -0x22(%rbp,%rcx,1),%esi
  40337b:	ff d0                	call   *%rax
  40337d:	e9 cf ff ff ff       	jmp    403351 <writedec+0x111>
  403382:	c7 45 fc 01 00 00 00 	movl   $0x1,-0x4(%rbp)
  403389:	8b 45 fc             	mov    -0x4(%rbp),%eax
  40338c:	48 83 c4 30          	add    $0x30,%rsp
  403390:	5d                   	pop    %rbp
  403391:	c3                   	ret    
  403392:	66 2e 0f 1f 84 00 00 	cs nopw 0x0(%rax,%rax,1)
  403399:	00 00 00 
  40339c:	0f 1f 40 00          	nopl   0x0(%rax)

00000000004033a0 <_init>:
  4033a0:	55                   	push   %rbp
  4033a1:	48 89 e5             	mov    %rsp,%rbp
  4033a4:	48 81 ec 20 10 00 00 	sub    $0x1020,%rsp
  4033ab:	48 89 bd e8 ef ff ff 	mov    %rdi,-0x1018(%rbp)
  4033b2:	48 89 bd f0 ef ff ff 	mov    %rdi,-0x1010(%rbp)
  4033b9:	48 8d bd f8 ef ff ff 	lea    -0x1008(%rbp),%rdi
  4033c0:	31 f6                	xor    %esi,%esi
  4033c2:	ba 04 10 00 00       	mov    $0x1004,%edx
  4033c7:	e8 c4 dc ff ff       	call   401090 <memset@plt>
  4033cc:	48 8b bd e8 ef ff ff 	mov    -0x1018(%rbp),%rdi
  4033d3:	48 8d b5 f8 ef ff ff 	lea    -0x1008(%rbp),%rsi
  4033da:	ba 04 10 00 00       	mov    $0x1004,%edx
  4033df:	e8 0c dd ff ff       	call   4010f0 <memcpy@plt>
  4033e4:	48 8b bd e8 ef ff ff 	mov    -0x1018(%rbp),%rdi
  4033eb:	48 83 c7 04          	add    $0x4,%rdi
  4033ef:	be 00 10 00 00       	mov    $0x1000,%esi
  4033f4:	e8 a7 dc ff ff       	call   4010a0 <getcwd@plt>
  4033f9:	48 8b 85 f0 ef ff ff 	mov    -0x1010(%rbp),%rax
  403400:	48 81 c4 20 10 00 00 	add    $0x1020,%rsp
  403407:	5d                   	pop    %rbp
  403408:	c3                   	ret    
  403409:	0f 1f 80 00 00 00 00 	nopl   0x0(%rax)

0000000000403410 <_manager>:
  403410:	55                   	push   %rbp
  403411:	48 89 e5             	mov    %rsp,%rbp
  403414:	48 81 ec 30 20 00 00 	sub    $0x2030,%rsp
  40341b:	89 bd ec ef ff ff    	mov    %edi,-0x1014(%rbp)
  403421:	48 89 b5 e0 ef ff ff 	mov    %rsi,-0x1020(%rbp)
  403428:	83 bd ec ef ff ff 01 	cmpl   $0x1,-0x1014(%rbp)
  40342f:	0f 85 16 00 00 00    	jne    40344b <_manager+0x3b>
  403435:	48 b8 e4 b0 40 00 00 	movabs $0x40b0e4,%rax
  40343c:	00 00 00 
  40343f:	48 89 85 f0 ef ff ff 	mov    %rax,-0x1010(%rbp)
  403446:	e9 2e 01 00 00       	jmp    403579 <_manager+0x169>
  40344b:	83 bd ec ef ff ff 02 	cmpl   $0x2,-0x1014(%rbp)
  403452:	0f 85 20 00 00 00    	jne    403478 <_manager+0x68>
  403458:	48 8b 85 e0 ef ff ff 	mov    -0x1020(%rbp),%rax
  40345f:	8b 00                	mov    (%rax),%eax
  403461:	89 04 25 e4 b0 40 00 	mov    %eax,0x40b0e4
  403468:	48 c7 85 f0 ef ff ff 	movq   $0x0,-0x1010(%rbp)
  40346f:	00 00 00 00 
  403473:	e9 01 01 00 00       	jmp    403579 <_manager+0x169>
  403478:	83 bd ec ef ff ff 03 	cmpl   $0x3,-0x1014(%rbp)
  40347f:	0f 85 1a 00 00 00    	jne    40349f <_manager+0x8f>
  403485:	48 b8 e4 b0 40 00 00 	movabs $0x40b0e4,%rax
  40348c:	00 00 00 
  40348f:	48 83 c0 04          	add    $0x4,%rax
  403493:	48 89 85 f0 ef ff ff 	mov    %rax,-0x1010(%rbp)
  40349a:	e9 da 00 00 00       	jmp    403579 <_manager+0x169>
  40349f:	83 bd ec ef ff ff 04 	cmpl   $0x4,-0x1014(%rbp)
  4034a6:	0f 85 28 00 00 00    	jne    4034d4 <_manager+0xc4>
  4034ac:	48 bf e4 b0 40 00 00 	movabs $0x40b0e4,%rdi
  4034b3:	00 00 00 
  4034b6:	48 83 c7 04          	add    $0x4,%rdi
  4034ba:	be 00 10 00 00       	mov    $0x1000,%esi
  4034bf:	e8 dc db ff ff       	call   4010a0 <getcwd@plt>
  4034c4:	48 c7 85 f0 ef ff ff 	movq   $0x0,-0x1010(%rbp)
  4034cb:	00 00 00 00 
  4034cf:	e9 a5 00 00 00       	jmp    403579 <_manager+0x169>
  4034d4:	83 bd ec ef ff ff 00 	cmpl   $0x0,-0x1014(%rbp)
  4034db:	0f 94 c0             	sete   %al
  4034de:	24 01                	and    $0x1,%al
  4034e0:	0f b6 c0             	movzbl %al,%eax
  4034e3:	48 98                	cltq   
  4034e5:	48 83 f8 00          	cmp    $0x0,%rax
  4034e9:	0f 84 6b 00 00 00    	je     40355a <_manager+0x14a>
  4034ef:	48 8d bd f8 ef ff ff 	lea    -0x1008(%rbp),%rdi
  4034f6:	31 f6                	xor    %esi,%esi
  4034f8:	ba 04 10 00 00       	mov    $0x1004,%edx
  4034fd:	e8 8e db ff ff       	call   401090 <memset@plt>
  403502:	48 8d bd d8 df ff ff 	lea    -0x2028(%rbp),%rdi
  403509:	48 8d b5 f8 ef ff ff 	lea    -0x1008(%rbp),%rsi
  403510:	ba 04 10 00 00       	mov    $0x1004,%edx
  403515:	e8 d6 db ff ff       	call   4010f0 <memcpy@plt>
  40351a:	48 8d bd d8 df ff ff 	lea    -0x2028(%rbp),%rdi
  403521:	48 83 c7 04          	add    $0x4,%rdi
  403525:	be 00 10 00 00       	mov    $0x1000,%esi
  40352a:	e8 71 db ff ff       	call   4010a0 <getcwd@plt>
  40352f:	48 8d b5 d8 df ff ff 	lea    -0x2028(%rbp),%rsi
  403536:	48 bf e4 b0 40 00 00 	movabs $0x40b0e4,%rdi
  40353d:	00 00 00 
  403540:	ba 04 10 00 00       	mov    $0x1004,%edx
  403545:	e8 a6 db ff ff       	call   4010f0 <memcpy@plt>
  40354a:	48 c7 85 f0 ef ff ff 	movq   $0x0,-0x1010(%rbp)
  403551:	00 00 00 00 
  403555:	e9 1f 00 00 00       	jmp    403579 <_manager+0x169>
  40355a:	e9 00 00 00 00       	jmp    40355f <_manager+0x14f>
  40355f:	e9 00 00 00 00       	jmp    403564 <_manager+0x154>
  403564:	e9 00 00 00 00       	jmp    403569 <_manager+0x159>
  403569:	e9 00 00 00 00       	jmp    40356e <_manager+0x15e>
  40356e:	48 c7 85 f0 ef ff ff 	movq   $0x0,-0x1010(%rbp)
  403575:	00 00 00 00 
  403579:	48 8b 85 f0 ef ff ff 	mov    -0x1010(%rbp),%rax
  403580:	48 81 c4 30 20 00 00 	add    $0x2030,%rsp
  403587:	5d                   	pop    %rbp
  403588:	c3                   	ret    
  403589:	0f 1f 80 00 00 00 00 	nopl   0x0(%rax)

0000000000403590 <get_last_child>:
  403590:	55                   	push   %rbp
  403591:	48 89 e5             	mov    %rsp,%rbp
  403594:	bf 01 00 00 00       	mov    $0x1,%edi
  403599:	31 c0                	xor    %eax,%eax
  40359b:	89 c6                	mov    %eax,%esi
  40359d:	e8 6e fe ff ff       	call   403410 <_manager>
  4035a2:	8b 00                	mov    (%rax),%eax
  4035a4:	5d                   	pop    %rbp
  4035a5:	c3                   	ret    
  4035a6:	66 2e 0f 1f 84 00 00 	cs nopw 0x0(%rax,%rax,1)
  4035ad:	00 00 00 

00000000004035b0 <set_last_child>:
  4035b0:	55                   	push   %rbp
  4035b1:	48 89 e5             	mov    %rsp,%rbp
  4035b4:	48 83 ec 10          	sub    $0x10,%rsp
  4035b8:	89 7d fc             	mov    %edi,-0x4(%rbp)
  4035bb:	48 8d 75 fc          	lea    -0x4(%rbp),%rsi
  4035bf:	bf 02 00 00 00       	mov    $0x2,%edi
  4035c4:	e8 47 fe ff ff       	call   403410 <_manager>
  4035c9:	48 83 f8 00          	cmp    $0x0,%rax
  4035cd:	0f 94 c0             	sete   %al
  4035d0:	24 01                	and    $0x1,%al
  4035d2:	0f b6 c0             	movzbl %al,%eax
  4035d5:	48 83 c4 10          	add    $0x10,%rsp
  4035d9:	5d                   	pop    %rbp
  4035da:	c3                   	ret    
  4035db:	0f 1f 44 00 00       	nopl   0x0(%rax,%rax,1)

00000000004035e0 <set_curent_path>:
  4035e0:	55                   	push   %rbp
  4035e1:	48 89 e5             	mov    %rsp,%rbp
  4035e4:	bf 04 00 00 00       	mov    $0x4,%edi
  4035e9:	31 c0                	xor    %eax,%eax
  4035eb:	89 c6                	mov    %eax,%esi
  4035ed:	e8 1e fe ff ff       	call   403410 <_manager>
  4035f2:	48 83 f8 00          	cmp    $0x0,%rax
  4035f6:	0f 94 c0             	sete   %al
  4035f9:	24 01                	and    $0x1,%al
  4035fb:	0f b6 c0             	movzbl %al,%eax
  4035fe:	5d                   	pop    %rbp
  4035ff:	c3                   	ret    

0000000000403600 <mm_alloc>:
  403600:	55                   	push   %rbp
  403601:	48 89 e5             	mov    %rsp,%rbp
  403604:	48 83 ec 20          	sub    $0x20,%rsp
  403608:	48 89 7d f0          	mov    %rdi,-0x10(%rbp)
  40360c:	48 83 7d f0 01       	cmpq   $0x1,-0x10(%rbp)
  403611:	0f 83 0d 00 00 00    	jae    403624 <mm_alloc+0x24>
  403617:	48 c7 45 f8 00 00 00 	movq   $0x0,-0x8(%rbp)
  40361e:	00 
  40361f:	e9 5a 00 00 00       	jmp    40367e <mm_alloc+0x7e>
  403624:	48 8b 7d f0          	mov    -0x10(%rbp),%rdi
  403628:	48 83 c7 10          	add    $0x10,%rdi
  40362c:	e8 df da ff ff       	call   401110 <malloc@plt>
  403631:	48 89 45 e8          	mov    %rax,-0x18(%rbp)
  403635:	48 83 7d e8 00       	cmpq   $0x0,-0x18(%rbp)
  40363a:	0f 85 0d 00 00 00    	jne    40364d <mm_alloc+0x4d>
  403640:	48 c7 45 f8 00 00 00 	movq   $0x0,-0x8(%rbp)
  403647:	00 
  403648:	e9 31 00 00 00       	jmp    40367e <mm_alloc+0x7e>
  40364d:	48 8b 4d e8          	mov    -0x18(%rbp),%rcx
  403651:	48 83 c1 10          	add    $0x10,%rcx
  403655:	48 8b 45 e8          	mov    -0x18(%rbp),%rax
  403659:	48 89 08             	mov    %rcx,(%rax)
  40365c:	48 8b 45 e8          	mov    -0x18(%rbp),%rax
  403660:	48 c7 40 08 00 00 00 	movq   $0x0,0x8(%rax)
  403667:	00 
  403668:	48 8b 7d e8          	mov    -0x18(%rbp),%rdi
  40366c:	31 f6                	xor    %esi,%esi
  40366e:	e8 0d 03 00 00       	call   403980 <_mm_store>
  403673:	48 8b 45 e8          	mov    -0x18(%rbp),%rax
  403677:	48 8b 00             	mov    (%rax),%rax
  40367a:	48 89 45 f8          	mov    %rax,-0x8(%rbp)
  40367e:	48 8b 45 f8          	mov    -0x8(%rbp),%rax
  403682:	48 83 c4 20          	add    $0x20,%rsp
  403686:	5d                   	pop    %rbp
  403687:	c3                   	ret    
  403688:	0f 1f 84 00 00 00 00 	nopl   0x0(%rax,%rax,1)
  40368f:	00 

0000000000403690 <mm_realloc>:
  403690:	55                   	push   %rbp
  403691:	48 89 e5             	mov    %rsp,%rbp
  403694:	48 83 ec 30          	sub    $0x30,%rsp
  403698:	48 89 7d f0          	mov    %rdi,-0x10(%rbp)
  40369c:	48 89 75 e8          	mov    %rsi,-0x18(%rbp)
  4036a0:	48 89 55 e0          	mov    %rdx,-0x20(%rbp)
  4036a4:	48 83 7d f0 00       	cmpq   $0x0,-0x10(%rbp)
  4036a9:	0f 85 12 00 00 00    	jne    4036c1 <mm_realloc+0x31>
  4036af:	48 8b 7d e8          	mov    -0x18(%rbp),%rdi
  4036b3:	e8 48 ff ff ff       	call   403600 <mm_alloc>
  4036b8:	48 89 45 f8          	mov    %rax,-0x8(%rbp)
  4036bc:	e9 7a 00 00 00       	jmp    40373b <mm_realloc+0xab>
  4036c1:	48 83 7d e8 01       	cmpq   $0x1,-0x18(%rbp)
  4036c6:	0f 83 16 00 00 00    	jae    4036e2 <mm_realloc+0x52>
  4036cc:	48 8b 7d f0          	mov    -0x10(%rbp),%rdi
  4036d0:	e8 7b 00 00 00       	call   403750 <mm_free>
  4036d5:	48 c7 45 f8 00 00 00 	movq   $0x0,-0x8(%rbp)
  4036dc:	00 
  4036dd:	e9 59 00 00 00       	jmp    40373b <mm_realloc+0xab>
  4036e2:	48 8b 45 f0          	mov    -0x10(%rbp),%rax
  4036e6:	48 83 c0 f0          	add    $0xfffffffffffffff0,%rax
  4036ea:	48 89 45 d8          	mov    %rax,-0x28(%rbp)
  4036ee:	48 8b 7d e8          	mov    -0x18(%rbp),%rdi
  4036f2:	e8 09 ff ff ff       	call   403600 <mm_alloc>
  4036f7:	48 89 45 d0          	mov    %rax,-0x30(%rbp)
  4036fb:	48 83 7d d0 00       	cmpq   $0x0,-0x30(%rbp)
  403700:	0f 85 0d 00 00 00    	jne    403713 <mm_realloc+0x83>
  403706:	48 c7 45 f8 00 00 00 	movq   $0x0,-0x8(%rbp)
  40370d:	00 
  40370e:	e9 28 00 00 00       	jmp    40373b <mm_realloc+0xab>
  403713:	48 8b 7d d0          	mov    -0x30(%rbp),%rdi
  403717:	48 8b 45 d8          	mov    -0x28(%rbp),%rax
  40371b:	48 8b 30             	mov    (%rax),%rsi
  40371e:	48 8b 55 e0          	mov    -0x20(%rbp),%rdx
  403722:	e8 e9 04 00 00       	call   403c10 <mm_memcpy>
  403727:	48 8b 45 d8          	mov    -0x28(%rbp),%rax
  40372b:	48 8b 38             	mov    (%rax),%rdi
  40372e:	e8 1d 00 00 00       	call   403750 <mm_free>
  403733:	48 8b 45 d0          	mov    -0x30(%rbp),%rax
  403737:	48 89 45 f8          	mov    %rax,-0x8(%rbp)
  40373b:	48 8b 45 f8          	mov    -0x8(%rbp),%rax
  40373f:	48 83 c4 30          	add    $0x30,%rsp
  403743:	5d                   	pop    %rbp
  403744:	c3                   	ret    
  403745:	66 2e 0f 1f 84 00 00 	cs nopw 0x0(%rax,%rax,1)
  40374c:	00 00 00 
  40374f:	90                   	nop

0000000000403750 <mm_free>:
  403750:	55                   	push   %rbp
  403751:	48 89 e5             	mov    %rsp,%rbp
  403754:	48 83 ec 10          	sub    $0x10,%rsp
  403758:	48 89 7d f8          	mov    %rdi,-0x8(%rbp)
  40375c:	48 83 7d f8 00       	cmpq   $0x0,-0x8(%rbp)
  403761:	0f 85 05 00 00 00    	jne    40376c <mm_free+0x1c>
  403767:	e9 0e 00 00 00       	jmp    40377a <mm_free+0x2a>
  40376c:	48 8b 7d f8          	mov    -0x8(%rbp),%rdi
  403770:	be 01 00 00 00       	mov    $0x1,%esi
  403775:	e8 06 02 00 00       	call   403980 <_mm_store>
  40377a:	48 83 c4 10          	add    $0x10,%rsp
  40377e:	5d                   	pop    %rbp
  40377f:	c3                   	ret    

0000000000403780 <mm_destroy>:
  403780:	55                   	push   %rbp
  403781:	48 89 e5             	mov    %rsp,%rbp
  403784:	31 c0                	xor    %eax,%eax
  403786:	89 c7                	mov    %eax,%edi
  403788:	be 02 00 00 00       	mov    $0x2,%esi
  40378d:	e8 ee 01 00 00       	call   403980 <_mm_store>
  403792:	5d                   	pop    %rbp
  403793:	c3                   	ret    
  403794:	66 2e 0f 1f 84 00 00 	cs nopw 0x0(%rax,%rax,1)
  40379b:	00 00 00 
  40379e:	66 90                	xchg   %ax,%ax

00000000004037a0 <_add_to_bucket>:
  4037a0:	55                   	push   %rbp
  4037a1:	48 89 e5             	mov    %rsp,%rbp
  4037a4:	48 83 ec 30          	sub    $0x30,%rsp
  4037a8:	48 89 7d f8          	mov    %rdi,-0x8(%rbp)
  4037ac:	48 89 75 f0          	mov    %rsi,-0x10(%rbp)
  4037b0:	48 8b 45 f0          	mov    -0x10(%rbp),%rax
  4037b4:	48 89 45 e8          	mov    %rax,-0x18(%rbp)
  4037b8:	48 8b 45 e8          	mov    -0x18(%rbp),%rax
  4037bc:	48 8b 38             	mov    (%rax),%rdi
  4037bf:	e8 ec 03 00 00       	call   403bb0 <_hash>
  4037c4:	89 45 e4             	mov    %eax,-0x1c(%rbp)
  4037c7:	48 8b 45 f8          	mov    -0x8(%rbp),%rax
  4037cb:	48 63 4d e4          	movslq -0x1c(%rbp),%rcx
  4037cf:	48 c1 e1 04          	shl    $0x4,%rcx
  4037d3:	48 01 c8             	add    %rcx,%rax
  4037d6:	48 89 45 d8          	mov    %rax,-0x28(%rbp)
  4037da:	48 8b 45 d8          	mov    -0x28(%rbp),%rax
  4037de:	48 83 78 08 00       	cmpq   $0x0,0x8(%rax)
  4037e3:	0f 84 11 00 00 00    	je     4037fa <_add_to_bucket+0x5a>
  4037e9:	48 8b 45 d8          	mov    -0x28(%rbp),%rax
  4037ed:	48 8b 40 08          	mov    0x8(%rax),%rax
  4037f1:	48 89 45 d8          	mov    %rax,-0x28(%rbp)
  4037f5:	e9 e0 ff ff ff       	jmp    4037da <_add_to_bucket+0x3a>
  4037fa:	48 8b 4d e8          	mov    -0x18(%rbp),%rcx
  4037fe:	48 8b 45 d8          	mov    -0x28(%rbp),%rax
  403802:	48 89 48 08          	mov    %rcx,0x8(%rax)
  403806:	48 83 c4 30          	add    $0x30,%rsp
  40380a:	5d                   	pop    %rbp
  40380b:	c3                   	ret    
  40380c:	0f 1f 40 00          	nopl   0x0(%rax)

0000000000403810 <_free_one>:
  403810:	55                   	push   %rbp
  403811:	48 89 e5             	mov    %rsp,%rbp
  403814:	48 83 ec 30          	sub    $0x30,%rsp
  403818:	48 89 7d f8          	mov    %rdi,-0x8(%rbp)
  40381c:	48 89 75 f0          	mov    %rsi,-0x10(%rbp)
  403820:	48 8b 7d f0          	mov    -0x10(%rbp),%rdi
  403824:	e8 87 03 00 00       	call   403bb0 <_hash>
  403829:	89 45 ec             	mov    %eax,-0x14(%rbp)
  40382c:	48 8b 45 f8          	mov    -0x8(%rbp),%rax
  403830:	48 63 4d ec          	movslq -0x14(%rbp),%rcx
  403834:	48 c1 e1 04          	shl    $0x4,%rcx
  403838:	48 01 c8             	add    %rcx,%rax
  40383b:	48 89 45 e0          	mov    %rax,-0x20(%rbp)
  40383f:	48 8b 4d e0          	mov    -0x20(%rbp),%rcx
  403843:	31 c0                	xor    %eax,%eax
  403845:	48 83 79 08 00       	cmpq   $0x0,0x8(%rcx)
  40384a:	88 45 d7             	mov    %al,-0x29(%rbp)
  40384d:	0f 84 11 00 00 00    	je     403864 <_free_one+0x54>
  403853:	48 8b 45 e0          	mov    -0x20(%rbp),%rax
  403857:	48 8b 00             	mov    (%rax),%rax
  40385a:	48 3b 45 f0          	cmp    -0x10(%rbp),%rax
  40385e:	0f 95 c0             	setne  %al
  403861:	88 45 d7             	mov    %al,-0x29(%rbp)
  403864:	8a 45 d7             	mov    -0x29(%rbp),%al
  403867:	a8 01                	test   $0x1,%al
  403869:	0f 85 05 00 00 00    	jne    403874 <_free_one+0x64>
  40386f:	e9 19 00 00 00       	jmp    40388d <_free_one+0x7d>
  403874:	48 8b 45 e0          	mov    -0x20(%rbp),%rax
  403878:	48 89 45 d8          	mov    %rax,-0x28(%rbp)
  40387c:	48 8b 45 e0          	mov    -0x20(%rbp),%rax
  403880:	48 8b 40 08          	mov    0x8(%rax),%rax
  403884:	48 89 45 e0          	mov    %rax,-0x20(%rbp)
  403888:	e9 b2 ff ff ff       	jmp    40383f <_free_one+0x2f>
  40388d:	48 8b 45 e0          	mov    -0x20(%rbp),%rax
  403891:	48 8b 00             	mov    (%rax),%rax
  403894:	48 3b 45 f0          	cmp    -0x10(%rbp),%rax
  403898:	0f 85 2c 00 00 00    	jne    4038ca <_free_one+0xba>
  40389e:	48 83 7d d8 00       	cmpq   $0x0,-0x28(%rbp)
  4038a3:	0f 84 10 00 00 00    	je     4038b9 <_free_one+0xa9>
  4038a9:	48 8b 45 e0          	mov    -0x20(%rbp),%rax
  4038ad:	48 8b 48 08          	mov    0x8(%rax),%rcx
  4038b1:	48 8b 45 d8          	mov    -0x28(%rbp),%rax
  4038b5:	48 89 48 08          	mov    %rcx,0x8(%rax)
  4038b9:	48 8b 7d e0          	mov    -0x20(%rbp),%rdi
  4038bd:	e8 7e d7 ff ff       	call   401040 <free@plt>
  4038c2:	48 c7 45 e0 00 00 00 	movq   $0x0,-0x20(%rbp)
  4038c9:	00 
  4038ca:	48 83 c4 30          	add    $0x30,%rsp
  4038ce:	5d                   	pop    %rbp
  4038cf:	c3                   	ret    

00000000004038d0 <_free_all_bucket>:
  4038d0:	55                   	push   %rbp
  4038d1:	48 89 e5             	mov    %rsp,%rbp
  4038d4:	48 83 ec 20          	sub    $0x20,%rsp
  4038d8:	48 89 7d f8          	mov    %rdi,-0x8(%rbp)
  4038dc:	c7 45 f4 ff ff ff ff 	movl   $0xffffffff,-0xc(%rbp)
  4038e3:	8b 45 f4             	mov    -0xc(%rbp),%eax
  4038e6:	83 c0 01             	add    $0x1,%eax
  4038e9:	89 45 f4             	mov    %eax,-0xc(%rbp)
  4038ec:	3d 00 04 00 00       	cmp    $0x400,%eax
  4038f1:	0f 8d 7e 00 00 00    	jge    403975 <_free_all_bucket+0xa5>
  4038f7:	48 8b 45 f8          	mov    -0x8(%rbp),%rax
  4038fb:	48 63 4d f4          	movslq -0xc(%rbp),%rcx
  4038ff:	48 c1 e1 04          	shl    $0x4,%rcx
  403903:	48 01 c8             	add    %rcx,%rax
  403906:	48 8b 40 08          	mov    0x8(%rax),%rax
  40390a:	48 89 45 e8          	mov    %rax,-0x18(%rbp)
  40390e:	48 c7 45 e0 00 00 00 	movq   $0x0,-0x20(%rbp)
  403915:	00 
  403916:	48 83 7d e8 00       	cmpq   $0x0,-0x18(%rbp)
  40391b:	0f 84 22 00 00 00    	je     403943 <_free_all_bucket+0x73>
  403921:	48 8b 45 e8          	mov    -0x18(%rbp),%rax
  403925:	48 8b 40 08          	mov    0x8(%rax),%rax
  403929:	48 89 45 e0          	mov    %rax,-0x20(%rbp)
  40392d:	48 8b 7d e8          	mov    -0x18(%rbp),%rdi
  403931:	e8 0a d7 ff ff       	call   401040 <free@plt>
  403936:	48 8b 45 e0          	mov    -0x20(%rbp),%rax
  40393a:	48 89 45 e8          	mov    %rax,-0x18(%rbp)
  40393e:	e9 d3 ff ff ff       	jmp    403916 <_free_all_bucket+0x46>
  403943:	48 8b 45 f8          	mov    -0x8(%rbp),%rax
  403947:	48 63 4d f4          	movslq -0xc(%rbp),%rcx
  40394b:	48 c1 e1 04          	shl    $0x4,%rcx
  40394f:	48 01 c8             	add    %rcx,%rax
  403952:	48 c7 40 08 00 00 00 	movq   $0x0,0x8(%rax)
  403959:	00 
  40395a:	48 8b 45 f8          	mov    -0x8(%rbp),%rax
  40395e:	48 63 4d f4          	movslq -0xc(%rbp),%rcx
  403962:	48 c1 e1 04          	shl    $0x4,%rcx
  403966:	48 01 c8             	add    %rcx,%rax
  403969:	48 c7 00 00 00 00 00 	movq   $0x0,(%rax)
  403970:	e9 6e ff ff ff       	jmp    4038e3 <_free_all_bucket+0x13>
  403975:	48 83 c4 20          	add    $0x20,%rsp
  403979:	5d                   	pop    %rbp
  40397a:	c3                   	ret    
  40397b:	0f 1f 44 00 00       	nopl   0x0(%rax,%rax,1)

0000000000403980 <_mm_store>:
  403980:	55                   	push   %rbp
  403981:	48 89 e5             	mov    %rsp,%rbp
  403984:	48 81 ec 80 00 00 00 	sub    $0x80,%rsp
  40398b:	48 89 7d 88          	mov    %rdi,-0x78(%rbp)
  40398f:	89 75 84             	mov    %esi,-0x7c(%rbp)
  403992:	83 7d 84 00          	cmpl   $0x0,-0x7c(%rbp)
  403996:	0f 85 71 00 00 00    	jne    403a0d <_mm_store+0x8d>
  40399c:	48 8b 45 88          	mov    -0x78(%rbp),%rax
  4039a0:	48 b9 f0 c0 40 00 00 	movabs $0x40c0f0,%rcx
  4039a7:	00 00 00 
  4039aa:	48 89 4d b0          	mov    %rcx,-0x50(%rbp)
  4039ae:	48 89 45 a8          	mov    %rax,-0x58(%rbp)
  4039b2:	48 8b 45 a8          	mov    -0x58(%rbp),%rax
  4039b6:	48 89 45 a0          	mov    %rax,-0x60(%rbp)
  4039ba:	48 8b 45 a0          	mov    -0x60(%rbp),%rax
  4039be:	48 8b 38             	mov    (%rax),%rdi
  4039c1:	e8 ea 01 00 00       	call   403bb0 <_hash>
  4039c6:	89 45 9c             	mov    %eax,-0x64(%rbp)
  4039c9:	48 8b 45 b0          	mov    -0x50(%rbp),%rax
  4039cd:	48 63 4d 9c          	movslq -0x64(%rbp),%rcx
  4039d1:	48 c1 e1 04          	shl    $0x4,%rcx
  4039d5:	48 01 c8             	add    %rcx,%rax
  4039d8:	48 89 45 90          	mov    %rax,-0x70(%rbp)
  4039dc:	48 8b 45 90          	mov    -0x70(%rbp),%rax
  4039e0:	48 83 78 08 00       	cmpq   $0x0,0x8(%rax)
  4039e5:	0f 84 11 00 00 00    	je     4039fc <_mm_store+0x7c>
  4039eb:	48 8b 45 90          	mov    -0x70(%rbp),%rax
  4039ef:	48 8b 40 08          	mov    0x8(%rax),%rax
  4039f3:	48 89 45 90          	mov    %rax,-0x70(%rbp)
  4039f7:	e9 e0 ff ff ff       	jmp    4039dc <_mm_store+0x5c>
  4039fc:	48 8b 4d a0          	mov    -0x60(%rbp),%rcx
  403a00:	48 8b 45 90          	mov    -0x70(%rbp),%rax
  403a04:	48 89 48 08          	mov    %rcx,0x8(%rax)
  403a08:	e9 8f 01 00 00       	jmp    403b9c <_mm_store+0x21c>
  403a0d:	83 7d 84 01          	cmpl   $0x1,-0x7c(%rbp)
  403a11:	0f 85 c5 00 00 00    	jne    403adc <_mm_store+0x15c>
  403a17:	48 8b 45 88          	mov    -0x78(%rbp),%rax
  403a1b:	48 b9 f0 c0 40 00 00 	movabs $0x40c0f0,%rcx
  403a22:	00 00 00 
  403a25:	48 89 4d d8          	mov    %rcx,-0x28(%rbp)
  403a29:	48 89 45 d0          	mov    %rax,-0x30(%rbp)
  403a2d:	48 8b 7d d0          	mov    -0x30(%rbp),%rdi
  403a31:	e8 7a 01 00 00       	call   403bb0 <_hash>
  403a36:	89 45 cc             	mov    %eax,-0x34(%rbp)
  403a39:	48 8b 45 d8          	mov    -0x28(%rbp),%rax
  403a3d:	48 63 4d cc          	movslq -0x34(%rbp),%rcx
  403a41:	48 c1 e1 04          	shl    $0x4,%rcx
  403a45:	48 01 c8             	add    %rcx,%rax
  403a48:	48 89 45 c0          	mov    %rax,-0x40(%rbp)
  403a4c:	48 8b 4d c0          	mov    -0x40(%rbp),%rcx
  403a50:	31 c0                	xor    %eax,%eax
  403a52:	48 83 79 08 00       	cmpq   $0x0,0x8(%rcx)
  403a57:	88 45 83             	mov    %al,-0x7d(%rbp)
  403a5a:	0f 84 11 00 00 00    	je     403a71 <_mm_store+0xf1>
  403a60:	48 8b 45 c0          	mov    -0x40(%rbp),%rax
  403a64:	48 8b 00             	mov    (%rax),%rax
  403a67:	48 3b 45 d0          	cmp    -0x30(%rbp),%rax
  403a6b:	0f 95 c0             	setne  %al
  403a6e:	88 45 83             	mov    %al,-0x7d(%rbp)
  403a71:	8a 45 83             	mov    -0x7d(%rbp),%al
  403a74:	a8 01                	test   $0x1,%al
  403a76:	0f 85 05 00 00 00    	jne    403a81 <_mm_store+0x101>
  403a7c:	e9 19 00 00 00       	jmp    403a9a <_mm_store+0x11a>
  403a81:	48 8b 45 c0          	mov    -0x40(%rbp),%rax
  403a85:	48 89 45 b8          	mov    %rax,-0x48(%rbp)
  403a89:	48 8b 45 c0          	mov    -0x40(%rbp),%rax
  403a8d:	48 8b 40 08          	mov    0x8(%rax),%rax
  403a91:	48 89 45 c0          	mov    %rax,-0x40(%rbp)
  403a95:	e9 b2 ff ff ff       	jmp    403a4c <_mm_store+0xcc>
  403a9a:	48 8b 45 c0          	mov    -0x40(%rbp),%rax
  403a9e:	48 8b 00             	mov    (%rax),%rax
  403aa1:	48 3b 45 d0          	cmp    -0x30(%rbp),%rax
  403aa5:	0f 85 2c 00 00 00    	jne    403ad7 <_mm_store+0x157>
  403aab:	48 83 7d b8 00       	cmpq   $0x0,-0x48(%rbp)
  403ab0:	0f 84 10 00 00 00    	je     403ac6 <_mm_store+0x146>
  403ab6:	48 8b 45 c0          	mov    -0x40(%rbp),%rax
  403aba:	48 8b 48 08          	mov    0x8(%rax),%rcx
  403abe:	48 8b 45 b8          	mov    -0x48(%rbp),%rax
  403ac2:	48 89 48 08          	mov    %rcx,0x8(%rax)
  403ac6:	48 8b 7d c0          	mov    -0x40(%rbp),%rdi
  403aca:	e8 71 d5 ff ff       	call   401040 <free@plt>
  403acf:	48 c7 45 c0 00 00 00 	movq   $0x0,-0x40(%rbp)
  403ad6:	00 
  403ad7:	e9 bb 00 00 00       	jmp    403b97 <_mm_store+0x217>
  403adc:	83 7d 84 02          	cmpl   $0x2,-0x7c(%rbp)
  403ae0:	0f 85 ac 00 00 00    	jne    403b92 <_mm_store+0x212>
  403ae6:	48 b8 f0 c0 40 00 00 	movabs $0x40c0f0,%rax
  403aed:	00 00 00 
  403af0:	48 89 45 f8          	mov    %rax,-0x8(%rbp)
  403af4:	c7 45 f4 ff ff ff ff 	movl   $0xffffffff,-0xc(%rbp)
  403afb:	8b 45 f4             	mov    -0xc(%rbp),%eax
  403afe:	83 c0 01             	add    $0x1,%eax
  403b01:	89 45 f4             	mov    %eax,-0xc(%rbp)
  403b04:	3d 00 04 00 00       	cmp    $0x400,%eax
  403b09:	0f 8d 7e 00 00 00    	jge    403b8d <_mm_store+0x20d>
  403b0f:	48 8b 45 f8          	mov    -0x8(%rbp),%rax
  403b13:	48 63 4d f4          	movslq -0xc(%rbp),%rcx
  403b17:	48 c1 e1 04          	shl    $0x4,%rcx
  403b1b:	48 01 c8             	add    %rcx,%rax
  403b1e:	48 8b 40 08          	mov    0x8(%rax),%rax
  403b22:	48 89 45 e8          	mov    %rax,-0x18(%rbp)
  403b26:	48 c7 45 e0 00 00 00 	movq   $0x0,-0x20(%rbp)
  403b2d:	00 
  403b2e:	48 83 7d e8 00       	cmpq   $0x0,-0x18(%rbp)
  403b33:	0f 84 22 00 00 00    	je     403b5b <_mm_store+0x1db>
  403b39:	48 8b 45 e8          	mov    -0x18(%rbp),%rax
  403b3d:	48 8b 40 08          	mov    0x8(%rax),%rax
  403b41:	48 89 45 e0          	mov    %rax,-0x20(%rbp)
  403b45:	48 8b 7d e8          	mov    -0x18(%rbp),%rdi
  403b49:	e8 f2 d4 ff ff       	call   401040 <free@plt>
  403b4e:	48 8b 45 e0          	mov    -0x20(%rbp),%rax
  403b52:	48 89 45 e8          	mov    %rax,-0x18(%rbp)
  403b56:	e9 d3 ff ff ff       	jmp    403b2e <_mm_store+0x1ae>
  403b5b:	48 8b 45 f8          	mov    -0x8(%rbp),%rax
  403b5f:	48 63 4d f4          	movslq -0xc(%rbp),%rcx
  403b63:	48 c1 e1 04          	shl    $0x4,%rcx
  403b67:	48 01 c8             	add    %rcx,%rax
  403b6a:	48 c7 40 08 00 00 00 	movq   $0x0,0x8(%rax)
  403b71:	00 
  403b72:	48 8b 45 f8          	mov    -0x8(%rbp),%rax
  403b76:	48 63 4d f4          	movslq -0xc(%rbp),%rcx
  403b7a:	48 c1 e1 04          	shl    $0x4,%rcx
  403b7e:	48 01 c8             	add    %rcx,%rax
  403b81:	48 c7 00 00 00 00 00 	movq   $0x0,(%rax)
  403b88:	e9 6e ff ff ff       	jmp    403afb <_mm_store+0x17b>
  403b8d:	e9 00 00 00 00       	jmp    403b92 <_mm_store+0x212>
  403b92:	e9 00 00 00 00       	jmp    403b97 <_mm_store+0x217>
  403b97:	e9 00 00 00 00       	jmp    403b9c <_mm_store+0x21c>
  403b9c:	48 8b 45 88          	mov    -0x78(%rbp),%rax
  403ba0:	48 81 c4 80 00 00 00 	add    $0x80,%rsp
  403ba7:	5d                   	pop    %rbp
  403ba8:	c3                   	ret    
  403ba9:	0f 1f 80 00 00 00 00 	nopl   0x0(%rax)

0000000000403bb0 <_hash>:
  403bb0:	55                   	push   %rbp
  403bb1:	48 89 e5             	mov    %rsp,%rbp
  403bb4:	48 89 7d f8          	mov    %rdi,-0x8(%rbp)
  403bb8:	48 8b 45 f8          	mov    -0x8(%rbp),%rax
  403bbc:	48 89 45 f0          	mov    %rax,-0x10(%rbp)
  403bc0:	48 8b 45 f0          	mov    -0x10(%rbp),%rax
  403bc4:	48 c1 e8 10          	shr    $0x10,%rax
  403bc8:	48 33 45 f0          	xor    -0x10(%rbp),%rax
  403bcc:	48 69 c0 3b 9f 5d 04 	imul   $0x45d9f3b,%rax,%rax
  403bd3:	48 89 45 f0          	mov    %rax,-0x10(%rbp)
  403bd7:	48 8b 45 f0          	mov    -0x10(%rbp),%rax
  403bdb:	48 c1 e8 10          	shr    $0x10,%rax
  403bdf:	48 33 45 f0          	xor    -0x10(%rbp),%rax
  403be3:	48 69 c0 3b 9f 5d 04 	imul   $0x45d9f3b,%rax,%rax
  403bea:	48 89 45 f0          	mov    %rax,-0x10(%rbp)
  403bee:	48 8b 45 f0          	mov    -0x10(%rbp),%rax
  403bf2:	48 c1 e8 10          	shr    $0x10,%rax
  403bf6:	48 33 45 f0          	xor    -0x10(%rbp),%rax
  403bfa:	48 89 45 f0          	mov    %rax,-0x10(%rbp)
  403bfe:	48 8b 45 f0          	mov    -0x10(%rbp),%rax
  403c02:	48 25 ff 03 00 00    	and    $0x3ff,%rax
  403c08:	5d                   	pop    %rbp
  403c09:	c3                   	ret    
  403c0a:	66 0f 1f 44 00 00    	nopw   0x0(%rax,%rax,1)

0000000000403c10 <mm_memcpy>:
  403c10:	55                   	push   %rbp
  403c11:	48 89 e5             	mov    %rsp,%rbp
  403c14:	48 89 7d f0          	mov    %rdi,-0x10(%rbp)
  403c18:	48 89 75 e8          	mov    %rsi,-0x18(%rbp)
  403c1c:	48 89 55 e0          	mov    %rdx,-0x20(%rbp)
  403c20:	48 83 7d f0 00       	cmpq   $0x0,-0x10(%rbp)
  403c25:	0f 84 0b 00 00 00    	je     403c36 <mm_memcpy+0x26>
  403c2b:	48 83 7d e8 00       	cmpq   $0x0,-0x18(%rbp)
  403c30:	0f 85 0d 00 00 00    	jne    403c43 <mm_memcpy+0x33>
  403c36:	48 c7 45 f8 00 00 00 	movq   $0x0,-0x8(%rbp)
  403c3d:	00 
  403c3e:	e9 59 00 00 00       	jmp    403c9c <mm_memcpy+0x8c>
  403c43:	48 83 7d e0 00       	cmpq   $0x0,-0x20(%rbp)
  403c48:	0f 85 0d 00 00 00    	jne    403c5b <mm_memcpy+0x4b>
  403c4e:	48 8b 45 f0          	mov    -0x10(%rbp),%rax
  403c52:	48 89 45 f8          	mov    %rax,-0x8(%rbp)
  403c56:	e9 41 00 00 00       	jmp    403c9c <mm_memcpy+0x8c>
  403c5b:	48 c7 45 d8 ff ff ff 	movq   $0xffffffffffffffff,-0x28(%rbp)
  403c62:	ff 
  403c63:	48 8b 45 d8          	mov    -0x28(%rbp),%rax
  403c67:	48 83 c0 01          	add    $0x1,%rax
  403c6b:	48 89 45 d8          	mov    %rax,-0x28(%rbp)
  403c6f:	48 3b 45 e0          	cmp    -0x20(%rbp),%rax
  403c73:	0f 83 1b 00 00 00    	jae    403c94 <mm_memcpy+0x84>
  403c79:	48 8b 45 e8          	mov    -0x18(%rbp),%rax
  403c7d:	48 8b 4d d8          	mov    -0x28(%rbp),%rcx
  403c81:	8a 14 08             	mov    (%rax,%rcx,1),%dl
  403c84:	48 8b 45 f0          	mov    -0x10(%rbp),%rax
  403c88:	48 8b 4d d8          	mov    -0x28(%rbp),%rcx
  403c8c:	88 14 08             	mov    %dl,(%rax,%rcx,1)
  403c8f:	e9 cf ff ff ff       	jmp    403c63 <mm_memcpy+0x53>
  403c94:	48 8b 45 f0          	mov    -0x10(%rbp),%rax
  403c98:	48 89 45 f8          	mov    %rax,-0x8(%rbp)
  403c9c:	48 8b 45 f8          	mov    -0x8(%rbp),%rax
  403ca0:	5d                   	pop    %rbp
  403ca1:	c3                   	ret    
  403ca2:	66 90                	xchg   %ax,%ax
  403ca4:	66 2e 0f 1f 84 00 00 	cs nopw 0x0(%rax,%rax,1)
  403cab:	00 00 00 
  403cae:	66 90                	xchg   %ax,%ax

0000000000403cb0 <read_line>:
  403cb0:	55                   	push   %rbp
  403cb1:	48 89 e5             	mov    %rsp,%rbp
  403cb4:	48 81 ec c0 01 00 00 	sub    $0x1c0,%rsp
  403cbb:	48 89 7d f0          	mov    %rdi,-0x10(%rbp)
  403cbf:	48 8d bd 40 fe ff ff 	lea    -0x1c0(%rbp),%rdi
  403cc6:	31 f6                	xor    %esi,%esi
  403cc8:	ba d8 00 00 00       	mov    $0xd8,%edx
  403ccd:	e8 be d3 ff ff       	call   401090 <memset@plt>
  403cd2:	bf 01 04 00 00       	mov    $0x401,%edi
  403cd7:	e8 24 f9 ff ff       	call   403600 <mm_alloc>
  403cdc:	48 89 85 40 fe ff ff 	mov    %rax,-0x1c0(%rbp)
  403ce3:	48 8b 45 f0          	mov    -0x10(%rbp),%rax
  403ce7:	48 89 85 50 fe ff ff 	mov    %rax,-0x1b0(%rbp)
  403cee:	48 8b 7d f0          	mov    -0x10(%rbp),%rdi
  403cf2:	e8 59 1d 00 00       	call   405a50 <ft_strlen>
  403cf7:	89 85 58 fe ff ff    	mov    %eax,-0x1a8(%rbp)
  403cfd:	c7 85 5c fe ff ff 04 	movl   $0x4,-0x1a4(%rbp)
  403d04:	00 00 00 
  403d07:	48 8d bd 18 ff ff ff 	lea    -0xe8(%rbp),%rdi
  403d0e:	48 8d b5 40 fe ff ff 	lea    -0x1c0(%rbp),%rsi
  403d15:	ba d8 00 00 00       	mov    $0xd8,%edx
  403d1a:	e8 d1 d3 ff ff       	call   4010f0 <memcpy@plt>
  403d1f:	48 83 bd 18 ff ff ff 	cmpq   $0x0,-0xe8(%rbp)
  403d26:	00 
  403d27:	0f 95 c0             	setne  %al
  403d2a:	34 ff                	xor    $0xff,%al
  403d2c:	24 01                	and    $0x1,%al
  403d2e:	0f b6 c0             	movzbl %al,%eax
  403d31:	48 98                	cltq   
  403d33:	48 83 f8 00          	cmp    $0x0,%rax
  403d37:	0f 84 0d 00 00 00    	je     403d4a <read_line+0x9a>
  403d3d:	48 c7 45 f8 00 00 00 	movq   $0x0,-0x8(%rbp)
  403d44:	00 
  403d45:	e9 ad 00 00 00       	jmp    403df7 <read_line+0x147>
  403d4a:	48 8d bd 18 ff ff ff 	lea    -0xe8(%rbp),%rdi
  403d51:	e8 9a 0b 00 00       	call   4048f0 <_init_cmd>
  403d56:	48 8d bd 18 ff ff ff 	lea    -0xe8(%rbp),%rdi
  403d5d:	e8 6e 11 00 00       	call   404ed0 <_read>
  403d62:	89 85 20 ff ff ff    	mov    %eax,-0xe0(%rbp)
  403d68:	48 8d bd 18 ff ff ff 	lea    -0xe8(%rbp),%rdi
  403d6f:	48 83 c7 20          	add    $0x20,%rdi
  403d73:	48 83 c7 78          	add    $0x78,%rdi
  403d77:	e8 d4 01 00 00       	call   403f50 <_set_default>
  403d7c:	bf 01 00 00 00       	mov    $0x1,%edi
  403d81:	48 be 08 82 40 00 00 	movabs $0x408208,%rsi
  403d88:	00 00 00 
  403d8b:	ba 09 00 00 00       	mov    $0x9,%edx
  403d90:	e8 cb d2 ff ff       	call   401060 <write@plt>
  403d95:	8b b5 20 ff ff ff    	mov    -0xe0(%rbp),%esi
  403d9b:	48 bf 12 82 40 00 00 	movabs $0x408212,%rdi
  403da2:	00 00 00 
  403da5:	b0 00                	mov    $0x0,%al
  403da7:	e8 b4 ea ff ff       	call   402860 <ft_printf>
  403dac:	83 bd 34 ff ff ff 01 	cmpl   $0x1,-0xcc(%rbp)
  403db3:	0f 84 1a 00 00 00    	je     403dd3 <read_line+0x123>
  403db9:	83 bd 34 ff ff ff 02 	cmpl   $0x2,-0xcc(%rbp)
  403dc0:	0f 84 0d 00 00 00    	je     403dd3 <read_line+0x123>
  403dc6:	83 bd 20 ff ff ff 00 	cmpl   $0x0,-0xe0(%rbp)
  403dcd:	0f 85 19 00 00 00    	jne    403dec <read_line+0x13c>
  403dd3:	48 8b bd 18 ff ff ff 	mov    -0xe8(%rbp),%rdi
  403dda:	e8 71 f9 ff ff       	call   403750 <mm_free>
  403ddf:	48 c7 45 f8 00 00 00 	movq   $0x0,-0x8(%rbp)
  403de6:	00 
  403de7:	e9 0b 00 00 00       	jmp    403df7 <read_line+0x147>
  403dec:	48 8b 85 18 ff ff ff 	mov    -0xe8(%rbp),%rax
  403df3:	48 89 45 f8          	mov    %rax,-0x8(%rbp)
  403df7:	48 8b 45 f8          	mov    -0x8(%rbp),%rax
  403dfb:	48 81 c4 c0 01 00 00 	add    $0x1c0,%rsp
  403e02:	5d                   	pop    %rbp
  403e03:	c3                   	ret    
  403e04:	66 2e 0f 1f 84 00 00 	cs nopw 0x0(%rax,%rax,1)
  403e0b:	00 00 00 
  403e0e:	66 90                	xchg   %ax,%ax

0000000000403e10 <rl_add_history>:
  403e10:	55                   	push   %rbp
  403e11:	48 89 e5             	mov    %rsp,%rbp
  403e14:	48 83 ec 10          	sub    $0x10,%rsp
  403e18:	48 89 7d f8          	mov    %rdi,-0x8(%rbp)
  403e1c:	48 8b 75 f8          	mov    -0x8(%rbp),%rsi
  403e20:	bf 03 00 00 00       	mov    $0x3,%edi
  403e25:	e8 76 14 00 00       	call   4052a0 <_history_manager>
  403e2a:	48 83 c4 10          	add    $0x10,%rsp
  403e2e:	5d                   	pop    %rbp
  403e2f:	c3                   	ret    

0000000000403e30 <rl_clear_history>:
  403e30:	55                   	push   %rbp
  403e31:	48 89 e5             	mov    %rsp,%rbp
  403e34:	bf 05 00 00 00       	mov    $0x5,%edi
  403e39:	31 c0                	xor    %eax,%eax
  403e3b:	89 c6                	mov    %eax,%esi
  403e3d:	e8 5e 14 00 00       	call   4052a0 <_history_manager>
  403e42:	5d                   	pop    %rbp
  403e43:	c3                   	ret    
  403e44:	66 2e 0f 1f 84 00 00 	cs nopw 0x0(%rax,%rax,1)
  403e4b:	00 00 00 
  403e4e:	66 90                	xchg   %ax,%ax

0000000000403e50 <rl_get_history>:
  403e50:	55                   	push   %rbp
  403e51:	48 89 e5             	mov    %rsp,%rbp
  403e54:	bf 02 00 00 00       	mov    $0x2,%edi
  403e59:	31 c0                	xor    %eax,%eax
  403e5b:	89 c6                	mov    %eax,%esi
  403e5d:	e8 3e 14 00 00       	call   4052a0 <_history_manager>
  403e62:	5d                   	pop    %rbp
  403e63:	c3                   	ret    
  403e64:	66 2e 0f 1f 84 00 00 	cs nopw 0x0(%rax,%rax,1)
  403e6b:	00 00 00 
  403e6e:	66 90                	xchg   %ax,%ax

0000000000403e70 <rl_load_history>:
  403e70:	55                   	push   %rbp
  403e71:	48 89 e5             	mov    %rsp,%rbp
  403e74:	48 83 ec 10          	sub    $0x10,%rsp
  403e78:	48 89 7d f8          	mov    %rdi,-0x8(%rbp)
  403e7c:	48 8b 75 f8          	mov    -0x8(%rbp),%rsi
  403e80:	bf 06 00 00 00       	mov    $0x6,%edi
  403e85:	e8 16 14 00 00       	call   4052a0 <_history_manager>
  403e8a:	48 83 f8 00          	cmp    $0x0,%rax
  403e8e:	0f 94 c0             	sete   %al
  403e91:	24 01                	and    $0x1,%al
  403e93:	0f b6 c0             	movzbl %al,%eax
  403e96:	48 83 c4 10          	add    $0x10,%rsp
  403e9a:	5d                   	pop    %rbp
  403e9b:	c3                   	ret    
  403e9c:	0f 1f 40 00          	nopl   0x0(%rax)

0000000000403ea0 <reset_cmd>:
  403ea0:	55                   	push   %rbp
  403ea1:	48 89 e5             	mov    %rsp,%rbp
  403ea4:	48 81 ec 80 00 00 00 	sub    $0x80,%rsp
  403eab:	31 ff                	xor    %edi,%edi
  403ead:	48 8d 75 c0          	lea    -0x40(%rbp),%rsi
  403eb1:	e8 7a d2 ff ff       	call   401130 <tcgetattr@plt>
  403eb6:	48 8d 7d 80          	lea    -0x80(%rbp),%rdi
  403eba:	48 8d 75 c0          	lea    -0x40(%rbp),%rsi
  403ebe:	ba 3c 00 00 00       	mov    $0x3c,%edx
  403ec3:	e8 28 d2 ff ff       	call   4010f0 <memcpy@plt>
  403ec8:	48 8d 7d 80          	lea    -0x80(%rbp),%rdi
  403ecc:	e8 7f 00 00 00       	call   403f50 <_set_default>
  403ed1:	48 81 c4 80 00 00 00 	add    $0x80,%rsp
  403ed8:	5d                   	pop    %rbp
  403ed9:	c3                   	ret    
  403eda:	66 0f 1f 44 00 00    	nopw   0x0(%rax,%rax,1)

0000000000403ee0 <_set_raw>:
  403ee0:	55                   	push   %rbp
  403ee1:	48 89 e5             	mov    %rsp,%rbp
  403ee4:	48 83 ec 10          	sub    $0x10,%rsp
  403ee8:	48 89 7d f8          	mov    %rdi,-0x8(%rbp)
  403eec:	48 8b 45 f8          	mov    -0x8(%rbp),%rax
  403ef0:	8b 08                	mov    (%rax),%ecx
  403ef2:	81 e1 cd fa ff ff    	and    $0xfffffacd,%ecx
  403ef8:	89 08                	mov    %ecx,(%rax)
  403efa:	48 8b 45 f8          	mov    -0x8(%rbp),%rax
  403efe:	8b 48 04             	mov    0x4(%rax),%ecx
  403f01:	83 e1 fe             	and    $0xfffffffe,%ecx
  403f04:	89 48 04             	mov    %ecx,0x4(%rax)
  403f07:	48 8b 45 f8          	mov    -0x8(%rbp),%rax
  403f0b:	8b 48 08             	mov    0x8(%rax),%ecx
  403f0e:	83 c9 30             	or     $0x30,%ecx
  403f11:	89 48 08             	mov    %ecx,0x8(%rax)
  403f14:	48 8b 45 f8          	mov    -0x8(%rbp),%rax
  403f18:	8b 48 0c             	mov    0xc(%rax),%ecx
  403f1b:	81 e1 f4 7f ff ff    	and    $0xffff7ff4,%ecx
  403f21:	89 48 0c             	mov    %ecx,0xc(%rax)
  403f24:	48 8b 45 f8          	mov    -0x8(%rbp),%rax
  403f28:	c6 40 17 01          	movb   $0x1,0x17(%rax)
  403f2c:	48 8b 45 f8          	mov    -0x8(%rbp),%rax
  403f30:	c6 40 16 00          	movb   $0x0,0x16(%rax)
  403f34:	48 8b 55 f8          	mov    -0x8(%rbp),%rdx
  403f38:	31 f6                	xor    %esi,%esi
  403f3a:	89 f7                	mov    %esi,%edi
  403f3c:	e8 ff d1 ff ff       	call   401140 <tcsetattr@plt>
  403f41:	48 83 c4 10          	add    $0x10,%rsp
  403f45:	5d                   	pop    %rbp
  403f46:	c3                   	ret    
  403f47:	66 0f 1f 84 00 00 00 	nopw   0x0(%rax,%rax,1)
  403f4e:	00 00 

0000000000403f50 <_set_default>:
  403f50:	55                   	push   %rbp
  403f51:	48 89 e5             	mov    %rsp,%rbp
  403f54:	48 83 ec 10          	sub    $0x10,%rsp
  403f58:	48 89 7d f8          	mov    %rdi,-0x8(%rbp)
  403f5c:	48 8b 45 f8          	mov    -0x8(%rbp),%rax
  403f60:	8b 08                	mov    (%rax),%ecx
  403f62:	81 c9 32 05 00 00    	or     $0x532,%ecx
  403f68:	89 08                	mov    %ecx,(%rax)
  403f6a:	48 8b 45 f8          	mov    -0x8(%rbp),%rax
  403f6e:	8b 48 04             	mov    0x4(%rax),%ecx
  403f71:	83 c9 01             	or     $0x1,%ecx
  403f74:	89 48 04             	mov    %ecx,0x4(%rax)
  403f77:	48 8b 45 f8          	mov    -0x8(%rbp),%rax
  403f7b:	8b 48 08             	mov    0x8(%rax),%ecx
  403f7e:	83 e1 cf             	and    $0xffffffcf,%ecx
  403f81:	89 48 08             	mov    %ecx,0x8(%rax)
  403f84:	48 8b 45 f8          	mov    -0x8(%rbp),%rax
  403f88:	8b 48 08             	mov    0x8(%rax),%ecx
  403f8b:	83 c9 30             	or     $0x30,%ecx
  403f8e:	89 48 08             	mov    %ecx,0x8(%rax)
  403f91:	48 8b 45 f8          	mov    -0x8(%rbp),%rax
  403f95:	8b 48 0c             	mov    0xc(%rax),%ecx
  403f98:	81 c9 0b 80 00 00    	or     $0x800b,%ecx
  403f9e:	89 48 0c             	mov    %ecx,0xc(%rax)
  403fa1:	48 8b 45 f8          	mov    -0x8(%rbp),%rax
  403fa5:	c6 40 17 01          	movb   $0x1,0x17(%rax)
  403fa9:	48 8b 45 f8          	mov    -0x8(%rbp),%rax
  403fad:	c6 40 16 00          	movb   $0x0,0x16(%rax)
  403fb1:	48 8b 55 f8          	mov    -0x8(%rbp),%rdx
  403fb5:	31 f6                	xor    %esi,%esi
  403fb7:	89 f7                	mov    %esi,%edi
  403fb9:	e8 82 d1 ff ff       	call   401140 <tcsetattr@plt>
  403fbe:	48 83 c4 10          	add    $0x10,%rsp
  403fc2:	5d                   	pop    %rbp
  403fc3:	c3                   	ret    
  403fc4:	66 2e 0f 1f 84 00 00 	cs nopw 0x0(%rax,%rax,1)
  403fcb:	00 00 00 
  403fce:	66 90                	xchg   %ax,%ax

0000000000403fd0 <move_cursor>:
  403fd0:	55                   	push   %rbp
  403fd1:	48 89 e5             	mov    %rsp,%rbp
  403fd4:	48 83 ec 10          	sub    $0x10,%rsp
  403fd8:	89 7d fc             	mov    %edi,-0x4(%rbp)
  403fdb:	89 75 f8             	mov    %esi,-0x8(%rbp)
  403fde:	8b 75 fc             	mov    -0x4(%rbp),%esi
  403fe1:	8b 55 f8             	mov    -0x8(%rbp),%edx
  403fe4:	48 bf 23 82 40 00 00 	movabs $0x408223,%rdi
  403feb:	00 00 00 
  403fee:	b0 00                	mov    $0x0,%al
  403ff0:	e8 8b d0 ff ff       	call   401080 <printf@plt>
  403ff5:	48 83 c4 10          	add    $0x10,%rsp
  403ff9:	5d                   	pop    %rbp
  403ffa:	c3                   	ret    
  403ffb:	0f 1f 44 00 00       	nopl   0x0(%rax,%rax,1)

0000000000404000 <save_cursor>:
  404000:	55                   	push   %rbp
  404001:	48 89 e5             	mov    %rsp,%rbp
  404004:	bf 01 00 00 00       	mov    $0x1,%edi
  404009:	48 be 2c 82 40 00 00 	movabs $0x40822c,%rsi
  404010:	00 00 00 
  404013:	ba 03 00 00 00       	mov    $0x3,%edx
  404018:	e8 43 d0 ff ff       	call   401060 <write@plt>
  40401d:	5d                   	pop    %rbp
  40401e:	c3                   	ret    
  40401f:	90                   	nop

0000000000404020 <restore_cursor>:
  404020:	55                   	push   %rbp
  404021:	48 89 e5             	mov    %rsp,%rbp
  404024:	bf 01 00 00 00       	mov    $0x1,%edi
  404029:	48 be 30 82 40 00 00 	movabs $0x408230,%rsi
  404030:	00 00 00 
  404033:	ba 03 00 00 00       	mov    $0x3,%edx
  404038:	e8 23 d0 ff ff       	call   401060 <write@plt>
  40403d:	5d                   	pop    %rbp
  40403e:	c3                   	ret    
  40403f:	90                   	nop

0000000000404040 <read_ansi_sequence>:
  404040:	55                   	push   %rbp
  404041:	48 89 e5             	mov    %rsp,%rbp
  404044:	48 83 ec 20          	sub    $0x20,%rsp
  404048:	48 89 7d f0          	mov    %rdi,-0x10(%rbp)
  40404c:	89 75 ec             	mov    %esi,-0x14(%rbp)
  40404f:	48 83 7d f0 00       	cmpq   $0x0,-0x10(%rbp)
  404054:	0f 84 0a 00 00 00    	je     404064 <read_ansi_sequence+0x24>
  40405a:	83 7d ec 02          	cmpl   $0x2,-0x14(%rbp)
  40405e:	0f 8d 0c 00 00 00    	jge    404070 <read_ansi_sequence+0x30>
  404064:	c7 45 fc ff ff ff ff 	movl   $0xffffffff,-0x4(%rbp)
  40406b:	e9 43 01 00 00       	jmp    4041b3 <read_ansi_sequence+0x173>
  404070:	c7 45 e4 ff ff ff ff 	movl   $0xffffffff,-0x1c(%rbp)
  404077:	48 8b 45 f0          	mov    -0x10(%rbp),%rax
  40407b:	8b 4d e4             	mov    -0x1c(%rbp),%ecx
  40407e:	83 c1 01             	add    $0x1,%ecx
  404081:	89 4d e4             	mov    %ecx,-0x1c(%rbp)
  404084:	48 63 c9             	movslq %ecx,%rcx
  404087:	c6 04 08 1b          	movb   $0x1b,(%rax,%rcx,1)
  40408b:	31 ff                	xor    %edi,%edi
  40408d:	48 8d 75 e3          	lea    -0x1d(%rbp),%rsi
  404091:	ba 01 00 00 00       	mov    $0x1,%edx
  404096:	e8 25 d0 ff ff       	call   4010c0 <read@plt>
  40409b:	89 45 e8             	mov    %eax,-0x18(%rbp)
  40409e:	b0 01                	mov    $0x1,%al
  4040a0:	83 7d e8 00          	cmpl   $0x0,-0x18(%rbp)
  4040a4:	88 45 e2             	mov    %al,-0x1e(%rbp)
  4040a7:	0f 8e 0d 00 00 00    	jle    4040ba <read_ansi_sequence+0x7a>
  4040ad:	0f be 45 e3          	movsbl -0x1d(%rbp),%eax
  4040b1:	83 f8 5b             	cmp    $0x5b,%eax
  4040b4:	0f 95 c0             	setne  %al
  4040b7:	88 45 e2             	mov    %al,-0x1e(%rbp)
  4040ba:	8a 45 e2             	mov    -0x1e(%rbp),%al
  4040bd:	24 01                	and    $0x1,%al
  4040bf:	0f b6 c0             	movzbl %al,%eax
  4040c2:	48 98                	cltq   
  4040c4:	48 83 f8 00          	cmp    $0x0,%rax
  4040c8:	0f 84 0c 00 00 00    	je     4040da <read_ansi_sequence+0x9a>
  4040ce:	c7 45 fc ff ff ff ff 	movl   $0xffffffff,-0x4(%rbp)
  4040d5:	e9 d9 00 00 00       	jmp    4041b3 <read_ansi_sequence+0x173>
  4040da:	8a 55 e3             	mov    -0x1d(%rbp),%dl
  4040dd:	48 8b 45 f0          	mov    -0x10(%rbp),%rax
  4040e1:	8b 4d e4             	mov    -0x1c(%rbp),%ecx
  4040e4:	83 c1 01             	add    $0x1,%ecx
  4040e7:	89 4d e4             	mov    %ecx,-0x1c(%rbp)
  4040ea:	48 63 c9             	movslq %ecx,%rcx
  4040ed:	88 14 08             	mov    %dl,(%rax,%rcx,1)
  4040f0:	8b 45 e4             	mov    -0x1c(%rbp),%eax
  4040f3:	8b 4d ec             	mov    -0x14(%rbp),%ecx
  4040f6:	83 e9 01             	sub    $0x1,%ecx
  4040f9:	39 c8                	cmp    %ecx,%eax
  4040fb:	0f 8d 98 00 00 00    	jge    404199 <read_ansi_sequence+0x159>
  404101:	31 ff                	xor    %edi,%edi
  404103:	48 8d 75 e3          	lea    -0x1d(%rbp),%rsi
  404107:	ba 01 00 00 00       	mov    $0x1,%edx
  40410c:	e8 af cf ff ff       	call   4010c0 <read@plt>
  404111:	89 45 e8             	mov    %eax,-0x18(%rbp)
  404114:	83 7d e8 00          	cmpl   $0x0,-0x18(%rbp)
  404118:	0f 9e c0             	setle  %al
  40411b:	24 01                	and    $0x1,%al
  40411d:	0f b6 c0             	movzbl %al,%eax
  404120:	48 98                	cltq   
  404122:	48 83 f8 00          	cmp    $0x0,%rax
  404126:	0f 84 0c 00 00 00    	je     404138 <read_ansi_sequence+0xf8>
  40412c:	c7 45 fc ff ff ff ff 	movl   $0xffffffff,-0x4(%rbp)
  404133:	e9 7b 00 00 00       	jmp    4041b3 <read_ansi_sequence+0x173>
  404138:	8a 55 e3             	mov    -0x1d(%rbp),%dl
  40413b:	48 8b 45 f0          	mov    -0x10(%rbp),%rax
  40413f:	8b 4d e4             	mov    -0x1c(%rbp),%ecx
  404142:	83 c1 01             	add    $0x1,%ecx
  404145:	89 4d e4             	mov    %ecx,-0x1c(%rbp)
  404148:	48 63 c9             	movslq %ecx,%rcx
  40414b:	88 14 08             	mov    %dl,(%rax,%rcx,1)
  40414e:	0f be 45 e3          	movsbl -0x1d(%rbp),%eax
  404152:	83 f8 41             	cmp    $0x41,%eax
  404155:	0f 8c 0d 00 00 00    	jl     404168 <read_ansi_sequence+0x128>
  40415b:	0f be 45 e3          	movsbl -0x1d(%rbp),%eax
  40415f:	83 f8 5a             	cmp    $0x5a,%eax
  404162:	0f 8e 27 00 00 00    	jle    40418f <read_ansi_sequence+0x14f>
  404168:	0f be 45 e3          	movsbl -0x1d(%rbp),%eax
  40416c:	83 f8 61             	cmp    $0x61,%eax
  40416f:	0f 8c 0d 00 00 00    	jl     404182 <read_ansi_sequence+0x142>
  404175:	0f be 45 e3          	movsbl -0x1d(%rbp),%eax
  404179:	83 f8 7a             	cmp    $0x7a,%eax
  40417c:	0f 8e 0d 00 00 00    	jle    40418f <read_ansi_sequence+0x14f>
  404182:	0f be 45 e3          	movsbl -0x1d(%rbp),%eax
  404186:	83 f8 7e             	cmp    $0x7e,%eax
  404189:	0f 85 05 00 00 00    	jne    404194 <read_ansi_sequence+0x154>
  40418f:	e9 05 00 00 00       	jmp    404199 <read_ansi_sequence+0x159>
  404194:	e9 57 ff ff ff       	jmp    4040f0 <read_ansi_sequence+0xb0>
  404199:	48 8b 45 f0          	mov    -0x10(%rbp),%rax
  40419d:	8b 4d e4             	mov    -0x1c(%rbp),%ecx
  4041a0:	83 c1 01             	add    $0x1,%ecx
  4041a3:	89 4d e4             	mov    %ecx,-0x1c(%rbp)
  4041a6:	48 63 c9             	movslq %ecx,%rcx
  4041a9:	c6 04 08 00          	movb   $0x0,(%rax,%rcx,1)
  4041ad:	8b 45 e4             	mov    -0x1c(%rbp),%eax
  4041b0:	89 45 fc             	mov    %eax,-0x4(%rbp)
  4041b3:	8b 45 fc             	mov    -0x4(%rbp),%eax
  4041b6:	48 83 c4 20          	add    $0x20,%rsp
  4041ba:	5d                   	pop    %rbp
  4041bb:	c3                   	ret    
  4041bc:	0f 1f 40 00          	nopl   0x0(%rax)

00000000004041c0 <_move>:
  4041c0:	55                   	push   %rbp
  4041c1:	48 89 e5             	mov    %rsp,%rbp
  4041c4:	48 83 ec 10          	sub    $0x10,%rsp
  4041c8:	40 88 f0             	mov    %sil,%al
  4041cb:	48 89 7d f8          	mov    %rdi,-0x8(%rbp)
  4041cf:	88 45 f7             	mov    %al,-0x9(%rbp)
  4041d2:	0f be 45 f7          	movsbl -0x9(%rbp),%eax
  4041d6:	83 f8 44             	cmp    $0x44,%eax
  4041d9:	0f 85 39 00 00 00    	jne    404218 <_move+0x58>
  4041df:	48 8b 45 f8          	mov    -0x8(%rbp),%rax
  4041e3:	83 78 0c 00          	cmpl   $0x0,0xc(%rax)
  4041e7:	0f 8e 26 00 00 00    	jle    404213 <_move+0x53>
  4041ed:	48 8b 45 f8          	mov    -0x8(%rbp),%rax
  4041f1:	8b 48 0c             	mov    0xc(%rax),%ecx
  4041f4:	83 c1 ff             	add    $0xffffffff,%ecx
  4041f7:	89 48 0c             	mov    %ecx,0xc(%rax)
  4041fa:	bf 01 00 00 00       	mov    $0x1,%edi
  4041ff:	48 be 34 82 40 00 00 	movabs $0x408234,%rsi
  404206:	00 00 00 
  404209:	ba 01 00 00 00       	mov    $0x1,%edx
  40420e:	e8 4d ce ff ff       	call   401060 <write@plt>
  404213:	e9 51 00 00 00       	jmp    404269 <_move+0xa9>
  404218:	0f be 45 f7          	movsbl -0x9(%rbp),%eax
  40421c:	83 f8 43             	cmp    $0x43,%eax
  40421f:	0f 85 3f 00 00 00    	jne    404264 <_move+0xa4>
  404225:	48 8b 45 f8          	mov    -0x8(%rbp),%rax
  404229:	8b 40 0c             	mov    0xc(%rax),%eax
  40422c:	48 8b 4d f8          	mov    -0x8(%rbp),%rcx
  404230:	3b 41 08             	cmp    0x8(%rcx),%eax
  404233:	0f 8d 26 00 00 00    	jge    40425f <_move+0x9f>
  404239:	48 8b 45 f8          	mov    -0x8(%rbp),%rax
  40423d:	8b 48 0c             	mov    0xc(%rax),%ecx
  404240:	83 c1 01             	add    $0x1,%ecx
  404243:	89 48 0c             	mov    %ecx,0xc(%rax)
  404246:	bf 01 00 00 00       	mov    $0x1,%edi
  40424b:	48 be 36 82 40 00 00 	movabs $0x408236,%rsi
  404252:	00 00 00 
  404255:	ba 03 00 00 00       	mov    $0x3,%edx
  40425a:	e8 01 ce ff ff       	call   401060 <write@plt>
  40425f:	e9 00 00 00 00       	jmp    404264 <_move+0xa4>
  404264:	e9 00 00 00 00       	jmp    404269 <_move+0xa9>
  404269:	48 83 c4 10          	add    $0x10,%rsp
  40426d:	5d                   	pop    %rbp
  40426e:	c3                   	ret    
  40426f:	90                   	nop

0000000000404270 <_del>:
  404270:	55                   	push   %rbp
  404271:	48 89 e5             	mov    %rsp,%rbp
  404274:	48 83 ec 10          	sub    $0x10,%rsp
  404278:	40 88 f0             	mov    %sil,%al
  40427b:	48 89 7d f8          	mov    %rdi,-0x8(%rbp)
  40427f:	88 45 f7             	mov    %al,-0x9(%rbp)
  404282:	0f be 45 f7          	movsbl -0x9(%rbp),%eax
  404286:	83 f8 33             	cmp    $0x33,%eax
  404289:	0f 85 3b 00 00 00    	jne    4042ca <_del+0x5a>
  40428f:	48 8b 45 f8          	mov    -0x8(%rbp),%rax
  404293:	8b 40 0c             	mov    0xc(%rax),%eax
  404296:	48 8b 4d f8          	mov    -0x8(%rbp),%rcx
  40429a:	3b 41 08             	cmp    0x8(%rcx),%eax
  40429d:	0f 8d 22 00 00 00    	jge    4042c5 <_del+0x55>
  4042a3:	48 8b 7d f8          	mov    -0x8(%rbp),%rdi
  4042a7:	e8 34 08 00 00       	call   404ae0 <_remove>
  4042ac:	bf 01 00 00 00       	mov    $0x1,%edi
  4042b1:	48 be 84 82 40 00 00 	movabs $0x408284,%rsi
  4042b8:	00 00 00 
  4042bb:	ba 03 00 00 00       	mov    $0x3,%edx
  4042c0:	e8 9b cd ff ff       	call   401060 <write@plt>
  4042c5:	e9 00 00 00 00       	jmp    4042ca <_del+0x5a>
  4042ca:	48 83 c4 10          	add    $0x10,%rsp
  4042ce:	5d                   	pop    %rbp
  4042cf:	c3                   	ret    

00000000004042d0 <_history>:
  4042d0:	55                   	push   %rbp
  4042d1:	48 89 e5             	mov    %rsp,%rbp
  4042d4:	48 83 ec 20          	sub    $0x20,%rsp
  4042d8:	40 88 f0             	mov    %sil,%al
  4042db:	48 89 7d f8          	mov    %rdi,-0x8(%rbp)
  4042df:	88 45 f7             	mov    %al,-0x9(%rbp)
  4042e2:	0f be 45 f7          	movsbl -0x9(%rbp),%eax
  4042e6:	83 f8 41             	cmp    $0x41,%eax
  4042e9:	0f 85 17 00 00 00    	jne    404306 <_history+0x36>
  4042ef:	bf 01 00 00 00       	mov    $0x1,%edi
  4042f4:	31 c0                	xor    %eax,%eax
  4042f6:	89 c6                	mov    %eax,%esi
  4042f8:	e8 a3 0f 00 00       	call   4052a0 <_history_manager>
  4042fd:	48 89 45 e8          	mov    %rax,-0x18(%rbp)
  404301:	e9 2e 00 00 00       	jmp    404334 <_history+0x64>
  404306:	0f be 45 f7          	movsbl -0x9(%rbp),%eax
  40430a:	83 f8 42             	cmp    $0x42,%eax
  40430d:	0f 85 14 00 00 00    	jne    404327 <_history+0x57>
  404313:	31 ff                	xor    %edi,%edi
  404315:	31 c0                	xor    %eax,%eax
  404317:	89 c6                	mov    %eax,%esi
  404319:	e8 82 0f 00 00       	call   4052a0 <_history_manager>
  40431e:	48 89 45 e8          	mov    %rax,-0x18(%rbp)
  404322:	e9 08 00 00 00       	jmp    40432f <_history+0x5f>
  404327:	48 c7 45 e8 00 00 00 	movq   $0x0,-0x18(%rbp)
  40432e:	00 
  40432f:	e9 00 00 00 00       	jmp    404334 <_history+0x64>
  404334:	48 83 7d e8 00       	cmpq   $0x0,-0x18(%rbp)
  404339:	0f 84 4f 00 00 00    	je     40438e <_history+0xbe>
  40433f:	48 8b 4d e8          	mov    -0x18(%rbp),%rcx
  404343:	48 8b 45 f8          	mov    -0x8(%rbp),%rax
  404347:	48 89 08             	mov    %rcx,(%rax)
  40434a:	48 8b 7d e8          	mov    -0x18(%rbp),%rdi
  40434e:	e8 fd 16 00 00       	call   405a50 <ft_strlen>
  404353:	89 c1                	mov    %eax,%ecx
  404355:	48 8b 45 f8          	mov    -0x8(%rbp),%rax
  404359:	89 48 08             	mov    %ecx,0x8(%rax)
  40435c:	48 8b 45 f8          	mov    -0x8(%rbp),%rax
  404360:	8b 48 08             	mov    0x8(%rax),%ecx
  404363:	48 8b 45 f8          	mov    -0x8(%rbp),%rax
  404367:	89 48 0c             	mov    %ecx,0xc(%rax)
  40436a:	48 8b 45 f8          	mov    -0x8(%rbp),%rax
  40436e:	8b 70 18             	mov    0x18(%rax),%esi
  404371:	48 8b 45 f8          	mov    -0x8(%rbp),%rax
  404375:	48 8b 10             	mov    (%rax),%rdx
  404378:	48 bf 3a 82 40 00 00 	movabs $0x40823a,%rdi
  40437f:	00 00 00 
  404382:	b0 00                	mov    $0x0,%al
  404384:	e8 d7 e4 ff ff       	call   402860 <ft_printf>
  404389:	e9 41 00 00 00       	jmp    4043cf <_history+0xff>
  40438e:	48 8b 45 f8          	mov    -0x8(%rbp),%rax
  404392:	8b 70 18             	mov    0x18(%rax),%esi
  404395:	48 bf 46 82 40 00 00 	movabs $0x408246,%rdi
  40439c:	00 00 00 
  40439f:	b0 00                	mov    $0x0,%al
  4043a1:	e8 ba e4 ff ff       	call   402860 <ft_printf>
  4043a6:	48 8b 45 f8          	mov    -0x8(%rbp),%rax
  4043aa:	48 8b 38             	mov    (%rax),%rdi
  4043ad:	48 8b 45 f8          	mov    -0x8(%rbp),%rax
  4043b1:	8b 70 08             	mov    0x8(%rax),%esi
  4043b4:	e8 07 17 00 00       	call   405ac0 <_neutral>
  4043b9:	48 8b 45 f8          	mov    -0x8(%rbp),%rax
  4043bd:	c7 40 08 00 00 00 00 	movl   $0x0,0x8(%rax)
  4043c4:	48 8b 45 f8          	mov    -0x8(%rbp),%rax
  4043c8:	c7 40 0c 00 00 00 00 	movl   $0x0,0xc(%rax)
  4043cf:	b8 01 00 00 00       	mov    $0x1,%eax
  4043d4:	48 83 c4 20          	add    $0x20,%rsp
  4043d8:	5d                   	pop    %rbp
  4043d9:	c3                   	ret    
  4043da:	66 0f 1f 44 00 00    	nopw   0x0(%rax,%rax,1)

00000000004043e0 <handle_ansi>:
  4043e0:	55                   	push   %rbp
  4043e1:	48 89 e5             	mov    %rsp,%rbp
  4043e4:	48 81 ec 90 00 00 00 	sub    $0x90,%rsp
  4043eb:	48 89 7d a0          	mov    %rdi,-0x60(%rbp)
  4043ef:	48 8d 45 80          	lea    -0x80(%rbp),%rax
  4043f3:	48 89 45 c0          	mov    %rax,-0x40(%rbp)
  4043f7:	c7 45 bc 11 00 00 00 	movl   $0x11,-0x44(%rbp)
  4043fe:	48 83 7d c0 00       	cmpq   $0x0,-0x40(%rbp)
  404403:	0f 84 0a 00 00 00    	je     404413 <handle_ansi+0x33>
  404409:	83 7d bc 02          	cmpl   $0x2,-0x44(%rbp)
  40440d:	0f 8d 0c 00 00 00    	jge    40441f <handle_ansi+0x3f>
  404413:	c7 45 c8 ff ff ff ff 	movl   $0xffffffff,-0x38(%rbp)
  40441a:	e9 44 01 00 00       	jmp    404563 <handle_ansi+0x183>
  40441f:	c7 45 b4 ff ff ff ff 	movl   $0xffffffff,-0x4c(%rbp)
  404426:	48 8b 45 c0          	mov    -0x40(%rbp),%rax
  40442a:	8b 4d b4             	mov    -0x4c(%rbp),%ecx
  40442d:	83 c1 01             	add    $0x1,%ecx
  404430:	89 4d b4             	mov    %ecx,-0x4c(%rbp)
  404433:	48 63 c9             	movslq %ecx,%rcx
  404436:	c6 04 08 1b          	movb   $0x1b,(%rax,%rcx,1)
  40443a:	31 ff                	xor    %edi,%edi
  40443c:	48 8d 75 b3          	lea    -0x4d(%rbp),%rsi
  404440:	ba 01 00 00 00       	mov    $0x1,%edx
  404445:	e8 76 cc ff ff       	call   4010c0 <read@plt>
  40444a:	89 45 b8             	mov    %eax,-0x48(%rbp)
  40444d:	b0 01                	mov    $0x1,%al
  40444f:	83 7d b8 00          	cmpl   $0x0,-0x48(%rbp)
  404453:	88 85 7b ff ff ff    	mov    %al,-0x85(%rbp)
  404459:	0f 8e 10 00 00 00    	jle    40446f <handle_ansi+0x8f>
  40445f:	0f be 45 b3          	movsbl -0x4d(%rbp),%eax
  404463:	83 f8 5b             	cmp    $0x5b,%eax
  404466:	0f 95 c0             	setne  %al
  404469:	88 85 7b ff ff ff    	mov    %al,-0x85(%rbp)
  40446f:	8a 85 7b ff ff ff    	mov    -0x85(%rbp),%al
  404475:	a8 01                	test   $0x1,%al
  404477:	0f 85 05 00 00 00    	jne    404482 <handle_ansi+0xa2>
  40447d:	e9 0c 00 00 00       	jmp    40448e <handle_ansi+0xae>
  404482:	c7 45 c8 ff ff ff ff 	movl   $0xffffffff,-0x38(%rbp)
  404489:	e9 d5 00 00 00       	jmp    404563 <handle_ansi+0x183>
  40448e:	8a 55 b3             	mov    -0x4d(%rbp),%dl
  404491:	48 8b 45 c0          	mov    -0x40(%rbp),%rax
  404495:	8b 4d b4             	mov    -0x4c(%rbp),%ecx
  404498:	83 c1 01             	add    $0x1,%ecx
  40449b:	89 4d b4             	mov    %ecx,-0x4c(%rbp)
  40449e:	48 63 c9             	movslq %ecx,%rcx
  4044a1:	88 14 08             	mov    %dl,(%rax,%rcx,1)
  4044a4:	8b 45 b4             	mov    -0x4c(%rbp),%eax
  4044a7:	8b 4d bc             	mov    -0x44(%rbp),%ecx
  4044aa:	83 e9 01             	sub    $0x1,%ecx
  4044ad:	39 c8                	cmp    %ecx,%eax
  4044af:	0f 8d 94 00 00 00    	jge    404549 <handle_ansi+0x169>
  4044b5:	31 ff                	xor    %edi,%edi
  4044b7:	48 8d 75 b3          	lea    -0x4d(%rbp),%rsi
  4044bb:	ba 01 00 00 00       	mov    $0x1,%edx
  4044c0:	e8 fb cb ff ff       	call   4010c0 <read@plt>
  4044c5:	89 45 b8             	mov    %eax,-0x48(%rbp)
  4044c8:	83 7d b8 00          	cmpl   $0x0,-0x48(%rbp)
  4044cc:	0f 9e c0             	setle  %al
  4044cf:	a8 01                	test   $0x1,%al
  4044d1:	0f 85 05 00 00 00    	jne    4044dc <handle_ansi+0xfc>
  4044d7:	e9 0c 00 00 00       	jmp    4044e8 <handle_ansi+0x108>
  4044dc:	c7 45 c8 ff ff ff ff 	movl   $0xffffffff,-0x38(%rbp)
  4044e3:	e9 7b 00 00 00       	jmp    404563 <handle_ansi+0x183>
  4044e8:	8a 55 b3             	mov    -0x4d(%rbp),%dl
  4044eb:	48 8b 45 c0          	mov    -0x40(%rbp),%rax
  4044ef:	8b 4d b4             	mov    -0x4c(%rbp),%ecx
  4044f2:	83 c1 01             	add    $0x1,%ecx
  4044f5:	89 4d b4             	mov    %ecx,-0x4c(%rbp)
  4044f8:	48 63 c9             	movslq %ecx,%rcx
  4044fb:	88 14 08             	mov    %dl,(%rax,%rcx,1)
  4044fe:	0f be 45 b3          	movsbl -0x4d(%rbp),%eax
  404502:	83 f8 41             	cmp    $0x41,%eax
  404505:	0f 8c 0d 00 00 00    	jl     404518 <handle_ansi+0x138>
  40450b:	0f be 45 b3          	movsbl -0x4d(%rbp),%eax
  40450f:	83 f8 5a             	cmp    $0x5a,%eax
  404512:	0f 8e 27 00 00 00    	jle    40453f <handle_ansi+0x15f>
  404518:	0f be 45 b3          	movsbl -0x4d(%rbp),%eax
  40451c:	83 f8 61             	cmp    $0x61,%eax
  40451f:	0f 8c 0d 00 00 00    	jl     404532 <handle_ansi+0x152>
  404525:	0f be 45 b3          	movsbl -0x4d(%rbp),%eax
  404529:	83 f8 7a             	cmp    $0x7a,%eax
  40452c:	0f 8e 0d 00 00 00    	jle    40453f <handle_ansi+0x15f>
  404532:	0f be 45 b3          	movsbl -0x4d(%rbp),%eax
  404536:	83 f8 7e             	cmp    $0x7e,%eax
  404539:	0f 85 05 00 00 00    	jne    404544 <handle_ansi+0x164>
  40453f:	e9 05 00 00 00       	jmp    404549 <handle_ansi+0x169>
  404544:	e9 5b ff ff ff       	jmp    4044a4 <handle_ansi+0xc4>
  404549:	48 8b 45 c0          	mov    -0x40(%rbp),%rax
  40454d:	8b 4d b4             	mov    -0x4c(%rbp),%ecx
  404550:	83 c1 01             	add    $0x1,%ecx
  404553:	89 4d b4             	mov    %ecx,-0x4c(%rbp)
  404556:	48 63 c9             	movslq %ecx,%rcx
  404559:	c6 04 08 00          	movb   $0x0,(%rax,%rcx,1)
  40455d:	8b 45 b4             	mov    -0x4c(%rbp),%eax
  404560:	89 45 c8             	mov    %eax,-0x38(%rbp)
  404563:	8b 45 c8             	mov    -0x38(%rbp),%eax
  404566:	89 85 7c ff ff ff    	mov    %eax,-0x84(%rbp)
  40456c:	b0 01                	mov    $0x1,%al
  40456e:	83 bd 7c ff ff ff 00 	cmpl   $0x0,-0x84(%rbp)
  404575:	88 85 7a ff ff ff    	mov    %al,-0x86(%rbp)
  40457b:	0f 84 10 00 00 00    	je     404591 <handle_ansi+0x1b1>
  404581:	83 bd 7c ff ff ff 00 	cmpl   $0x0,-0x84(%rbp)
  404588:	0f 9c c0             	setl   %al
  40458b:	88 85 7a ff ff ff    	mov    %al,-0x86(%rbp)
  404591:	8a 85 7a ff ff ff    	mov    -0x86(%rbp),%al
  404597:	24 01                	and    $0x1,%al
  404599:	0f b6 c0             	movzbl %al,%eax
  40459c:	48 98                	cltq   
  40459e:	48 83 f8 00          	cmp    $0x0,%rax
  4045a2:	0f 84 0c 00 00 00    	je     4045b4 <handle_ansi+0x1d4>
  4045a8:	c7 45 ac 00 00 00 00 	movl   $0x0,-0x54(%rbp)
  4045af:	e9 22 03 00 00       	jmp    4048d6 <handle_ansi+0x4f6>
  4045b4:	48 8d 7d 80          	lea    -0x80(%rbp),%rdi
  4045b8:	48 be 50 82 40 00 00 	movabs $0x408250,%rsi
  4045bf:	00 00 00 
  4045c2:	ba 03 00 00 00       	mov    $0x3,%edx
  4045c7:	e8 64 13 00 00       	call   405930 <ft_strncmp>
  4045cc:	83 f8 00             	cmp    $0x0,%eax
  4045cf:	0f 84 21 00 00 00    	je     4045f6 <handle_ansi+0x216>
  4045d5:	48 8d 7d 80          	lea    -0x80(%rbp),%rdi
  4045d9:	48 be 36 82 40 00 00 	movabs $0x408236,%rsi
  4045e0:	00 00 00 
  4045e3:	ba 03 00 00 00       	mov    $0x3,%edx
  4045e8:	e8 43 13 00 00       	call   405930 <ft_strncmp>
  4045ed:	83 f8 00             	cmp    $0x0,%eax
  4045f0:	0f 85 aa 00 00 00    	jne    4046a0 <handle_ansi+0x2c0>
  4045f6:	48 8b 4d a0          	mov    -0x60(%rbp),%rcx
  4045fa:	8a 45 82             	mov    -0x7e(%rbp),%al
  4045fd:	48 89 4d d0          	mov    %rcx,-0x30(%rbp)
  404601:	88 45 cf             	mov    %al,-0x31(%rbp)
  404604:	0f be 45 cf          	movsbl -0x31(%rbp),%eax
  404608:	83 f8 44             	cmp    $0x44,%eax
  40460b:	0f 85 39 00 00 00    	jne    40464a <handle_ansi+0x26a>
  404611:	48 8b 45 d0          	mov    -0x30(%rbp),%rax
  404615:	83 78 0c 00          	cmpl   $0x0,0xc(%rax)
  404619:	0f 8e 26 00 00 00    	jle    404645 <handle_ansi+0x265>
  40461f:	48 8b 45 d0          	mov    -0x30(%rbp),%rax
  404623:	8b 48 0c             	mov    0xc(%rax),%ecx
  404626:	83 c1 ff             	add    $0xffffffff,%ecx
  404629:	89 48 0c             	mov    %ecx,0xc(%rax)
  40462c:	bf 01 00 00 00       	mov    $0x1,%edi
  404631:	48 be 34 82 40 00 00 	movabs $0x408234,%rsi
  404638:	00 00 00 
  40463b:	ba 01 00 00 00       	mov    $0x1,%edx
  404640:	e8 1b ca ff ff       	call   401060 <write@plt>
  404645:	e9 51 00 00 00       	jmp    40469b <handle_ansi+0x2bb>
  40464a:	0f be 45 cf          	movsbl -0x31(%rbp),%eax
  40464e:	83 f8 43             	cmp    $0x43,%eax
  404651:	0f 85 3f 00 00 00    	jne    404696 <handle_ansi+0x2b6>
  404657:	48 8b 45 d0          	mov    -0x30(%rbp),%rax
  40465b:	8b 40 0c             	mov    0xc(%rax),%eax
  40465e:	48 8b 4d d0          	mov    -0x30(%rbp),%rcx
  404662:	3b 41 08             	cmp    0x8(%rcx),%eax
  404665:	0f 8d 26 00 00 00    	jge    404691 <handle_ansi+0x2b1>
  40466b:	48 8b 45 d0          	mov    -0x30(%rbp),%rax
  40466f:	8b 48 0c             	mov    0xc(%rax),%ecx
  404672:	83 c1 01             	add    $0x1,%ecx
  404675:	89 48 0c             	mov    %ecx,0xc(%rax)
  404678:	bf 01 00 00 00       	mov    $0x1,%edi
  40467d:	48 be 36 82 40 00 00 	movabs $0x408236,%rsi
  404684:	00 00 00 
  404687:	ba 03 00 00 00       	mov    $0x3,%edx
  40468c:	e8 cf c9 ff ff       	call   401060 <write@plt>
  404691:	e9 00 00 00 00       	jmp    404696 <handle_ansi+0x2b6>
  404696:	e9 00 00 00 00       	jmp    40469b <handle_ansi+0x2bb>
  40469b:	e9 2f 02 00 00       	jmp    4048cf <handle_ansi+0x4ef>
  4046a0:	48 8d 7d 80          	lea    -0x80(%rbp),%rdi
  4046a4:	48 be 54 82 40 00 00 	movabs $0x408254,%rsi
  4046ab:	00 00 00 
  4046ae:	ba 03 00 00 00       	mov    $0x3,%edx
  4046b3:	e8 78 12 00 00       	call   405930 <ft_strncmp>
  4046b8:	83 f8 00             	cmp    $0x0,%eax
  4046bb:	0f 84 21 00 00 00    	je     4046e2 <handle_ansi+0x302>
  4046c1:	48 8d 7d 80          	lea    -0x80(%rbp),%rdi
  4046c5:	48 be 58 82 40 00 00 	movabs $0x408258,%rsi
  4046cc:	00 00 00 
  4046cf:	ba 03 00 00 00       	mov    $0x3,%edx
  4046d4:	e8 57 12 00 00       	call   405930 <ft_strncmp>
  4046d9:	83 f8 00             	cmp    $0x0,%eax
  4046dc:	0f 85 00 01 00 00    	jne    4047e2 <handle_ansi+0x402>
  4046e2:	48 8b 4d a0          	mov    -0x60(%rbp),%rcx
  4046e6:	8a 45 82             	mov    -0x7e(%rbp),%al
  4046e9:	48 89 4d e8          	mov    %rcx,-0x18(%rbp)
  4046ed:	88 45 e7             	mov    %al,-0x19(%rbp)
  4046f0:	0f be 45 e7          	movsbl -0x19(%rbp),%eax
  4046f4:	83 f8 41             	cmp    $0x41,%eax
  4046f7:	0f 85 17 00 00 00    	jne    404714 <handle_ansi+0x334>
  4046fd:	bf 01 00 00 00       	mov    $0x1,%edi
  404702:	31 c0                	xor    %eax,%eax
  404704:	89 c6                	mov    %eax,%esi
  404706:	e8 95 0b 00 00       	call   4052a0 <_history_manager>
  40470b:	48 89 45 d8          	mov    %rax,-0x28(%rbp)
  40470f:	e9 2e 00 00 00       	jmp    404742 <handle_ansi+0x362>
  404714:	0f be 45 e7          	movsbl -0x19(%rbp),%eax
  404718:	83 f8 42             	cmp    $0x42,%eax
  40471b:	0f 85 14 00 00 00    	jne    404735 <handle_ansi+0x355>
  404721:	31 ff                	xor    %edi,%edi
  404723:	31 c0                	xor    %eax,%eax
  404725:	89 c6                	mov    %eax,%esi
  404727:	e8 74 0b 00 00       	call   4052a0 <_history_manager>
  40472c:	48 89 45 d8          	mov    %rax,-0x28(%rbp)
  404730:	e9 08 00 00 00       	jmp    40473d <handle_ansi+0x35d>
  404735:	48 c7 45 d8 00 00 00 	movq   $0x0,-0x28(%rbp)
  40473c:	00 
  40473d:	e9 00 00 00 00       	jmp    404742 <handle_ansi+0x362>
  404742:	48 83 7d d8 00       	cmpq   $0x0,-0x28(%rbp)
  404747:	0f 84 4f 00 00 00    	je     40479c <handle_ansi+0x3bc>
  40474d:	48 8b 4d d8          	mov    -0x28(%rbp),%rcx
  404751:	48 8b 45 e8          	mov    -0x18(%rbp),%rax
  404755:	48 89 08             	mov    %rcx,(%rax)
  404758:	48 8b 7d d8          	mov    -0x28(%rbp),%rdi
  40475c:	e8 ef 12 00 00       	call   405a50 <ft_strlen>
  404761:	89 c1                	mov    %eax,%ecx
  404763:	48 8b 45 e8          	mov    -0x18(%rbp),%rax
  404767:	89 48 08             	mov    %ecx,0x8(%rax)
  40476a:	48 8b 45 e8          	mov    -0x18(%rbp),%rax
  40476e:	8b 48 08             	mov    0x8(%rax),%ecx
  404771:	48 8b 45 e8          	mov    -0x18(%rbp),%rax
  404775:	89 48 0c             	mov    %ecx,0xc(%rax)
  404778:	48 8b 45 e8          	mov    -0x18(%rbp),%rax
  40477c:	8b 70 18             	mov    0x18(%rax),%esi
  40477f:	48 8b 45 e8          	mov    -0x18(%rbp),%rax
  404783:	48 8b 10             	mov    (%rax),%rdx
  404786:	48 bf 3a 82 40 00 00 	movabs $0x40823a,%rdi
  40478d:	00 00 00 
  404790:	b0 00                	mov    $0x0,%al
  404792:	e8 c9 e0 ff ff       	call   402860 <ft_printf>
  404797:	e9 41 00 00 00       	jmp    4047dd <handle_ansi+0x3fd>
  40479c:	48 8b 45 e8          	mov    -0x18(%rbp),%rax
  4047a0:	8b 70 18             	mov    0x18(%rax),%esi
  4047a3:	48 bf 46 82 40 00 00 	movabs $0x408246,%rdi
  4047aa:	00 00 00 
  4047ad:	b0 00                	mov    $0x0,%al
  4047af:	e8 ac e0 ff ff       	call   402860 <ft_printf>
  4047b4:	48 8b 45 e8          	mov    -0x18(%rbp),%rax
  4047b8:	48 8b 38             	mov    (%rax),%rdi
  4047bb:	48 8b 45 e8          	mov    -0x18(%rbp),%rax
  4047bf:	8b 70 08             	mov    0x8(%rax),%esi
  4047c2:	e8 f9 12 00 00       	call   405ac0 <_neutral>
  4047c7:	48 8b 45 e8          	mov    -0x18(%rbp),%rax
  4047cb:	c7 40 08 00 00 00 00 	movl   $0x0,0x8(%rax)
  4047d2:	48 8b 45 e8          	mov    -0x18(%rbp),%rax
  4047d6:	c7 40 0c 00 00 00 00 	movl   $0x0,0xc(%rax)
  4047dd:	e9 e8 00 00 00       	jmp    4048ca <handle_ansi+0x4ea>
  4047e2:	48 8d 7d 80          	lea    -0x80(%rbp),%rdi
  4047e6:	48 be 5c 82 40 00 00 	movabs $0x40825c,%rsi
  4047ed:	00 00 00 
  4047f0:	ba 04 00 00 00       	mov    $0x4,%edx
  4047f5:	e8 36 11 00 00       	call   405930 <ft_strncmp>
  4047fa:	83 f8 00             	cmp    $0x0,%eax
  4047fd:	0f 85 5b 00 00 00    	jne    40485e <handle_ansi+0x47e>
  404803:	48 8b 4d a0          	mov    -0x60(%rbp),%rcx
  404807:	8a 45 82             	mov    -0x7e(%rbp),%al
  40480a:	48 89 4d f8          	mov    %rcx,-0x8(%rbp)
  40480e:	88 45 f7             	mov    %al,-0x9(%rbp)
  404811:	0f be 45 f7          	movsbl -0x9(%rbp),%eax
  404815:	83 f8 33             	cmp    $0x33,%eax
  404818:	0f 85 3b 00 00 00    	jne    404859 <handle_ansi+0x479>
  40481e:	48 8b 45 f8          	mov    -0x8(%rbp),%rax
  404822:	8b 40 0c             	mov    0xc(%rax),%eax
  404825:	48 8b 4d f8          	mov    -0x8(%rbp),%rcx
  404829:	3b 41 08             	cmp    0x8(%rcx),%eax
  40482c:	0f 8d 22 00 00 00    	jge    404854 <handle_ansi+0x474>
  404832:	48 8b 7d f8          	mov    -0x8(%rbp),%rdi
  404836:	e8 a5 02 00 00       	call   404ae0 <_remove>
  40483b:	bf 01 00 00 00       	mov    $0x1,%edi
  404840:	48 be 84 82 40 00 00 	movabs $0x408284,%rsi
  404847:	00 00 00 
  40484a:	ba 03 00 00 00       	mov    $0x3,%edx
  40484f:	e8 0c c8 ff ff       	call   401060 <write@plt>
  404854:	e9 00 00 00 00       	jmp    404859 <handle_ansi+0x479>
  404859:	e9 67 00 00 00       	jmp    4048c5 <handle_ansi+0x4e5>
  40485e:	48 8d 7d 80          	lea    -0x80(%rbp),%rdi
  404862:	48 be 61 82 40 00 00 	movabs $0x408261,%rsi
  404869:	00 00 00 
  40486c:	ba 06 00 00 00       	mov    $0x6,%edx
  404871:	e8 ba 10 00 00       	call   405930 <ft_strncmp>
  404876:	83 f8 00             	cmp    $0x0,%eax
  404879:	0f 85 10 00 00 00    	jne    40488f <handle_ansi+0x4af>
  40487f:	48 8b 45 a0          	mov    -0x60(%rbp),%rax
  404883:	c7 40 1c 05 00 00 00 	movl   $0x5,0x1c(%rax)
  40488a:	e9 31 00 00 00       	jmp    4048c0 <handle_ansi+0x4e0>
  40488f:	48 8d 7d 80          	lea    -0x80(%rbp),%rdi
  404893:	48 be 68 82 40 00 00 	movabs $0x408268,%rsi
  40489a:	00 00 00 
  40489d:	ba 06 00 00 00       	mov    $0x6,%edx
  4048a2:	e8 89 10 00 00       	call   405930 <ft_strncmp>
  4048a7:	83 f8 00             	cmp    $0x0,%eax
  4048aa:	0f 85 0b 00 00 00    	jne    4048bb <handle_ansi+0x4db>
  4048b0:	48 8b 45 a0          	mov    -0x60(%rbp),%rax
  4048b4:	c7 40 1c 04 00 00 00 	movl   $0x4,0x1c(%rax)
  4048bb:	e9 00 00 00 00       	jmp    4048c0 <handle_ansi+0x4e0>
  4048c0:	e9 00 00 00 00       	jmp    4048c5 <handle_ansi+0x4e5>
  4048c5:	e9 00 00 00 00       	jmp    4048ca <handle_ansi+0x4ea>
  4048ca:	e9 00 00 00 00       	jmp    4048cf <handle_ansi+0x4ef>
  4048cf:	c7 45 ac 01 00 00 00 	movl   $0x1,-0x54(%rbp)
  4048d6:	8b 45 ac             	mov    -0x54(%rbp),%eax
  4048d9:	48 81 c4 90 00 00 00 	add    $0x90,%rsp
  4048e0:	5d                   	pop    %rbp
  4048e1:	c3                   	ret    
  4048e2:	66 2e 0f 1f 84 00 00 	cs nopw 0x0(%rax,%rax,1)
  4048e9:	00 00 00 
  4048ec:	0f 1f 40 00          	nopl   0x0(%rax)

00000000004048f0 <_init_cmd>:
  4048f0:	55                   	push   %rbp
  4048f1:	48 89 e5             	mov    %rsp,%rbp
  4048f4:	48 83 ec 10          	sub    $0x10,%rsp
  4048f8:	48 89 7d f8          	mov    %rdi,-0x8(%rbp)
  4048fc:	48 8b 75 f8          	mov    -0x8(%rbp),%rsi
  404900:	48 83 c6 20          	add    $0x20,%rsi
  404904:	31 ff                	xor    %edi,%edi
  404906:	e8 25 c8 ff ff       	call   401130 <tcgetattr@plt>
  40490b:	48 8b 7d f8          	mov    -0x8(%rbp),%rdi
  40490f:	48 83 c7 20          	add    $0x20,%rdi
  404913:	48 83 c7 3c          	add    $0x3c,%rdi
  404917:	48 8b 75 f8          	mov    -0x8(%rbp),%rsi
  40491b:	48 83 c6 20          	add    $0x20,%rsi
  40491f:	ba 3c 00 00 00       	mov    $0x3c,%edx
  404924:	e8 c7 c7 ff ff       	call   4010f0 <memcpy@plt>
  404929:	48 8b 7d f8          	mov    -0x8(%rbp),%rdi
  40492d:	48 83 c7 20          	add    $0x20,%rdi
  404931:	48 83 c7 78          	add    $0x78,%rdi
  404935:	48 8b 75 f8          	mov    -0x8(%rbp),%rsi
  404939:	48 83 c6 20          	add    $0x20,%rsi
  40493d:	ba 3c 00 00 00       	mov    $0x3c,%edx
  404942:	e8 a9 c7 ff ff       	call   4010f0 <memcpy@plt>
  404947:	48 8b 7d f8          	mov    -0x8(%rbp),%rdi
  40494b:	48 83 c7 20          	add    $0x20,%rdi
  40494f:	48 83 c7 3c          	add    $0x3c,%rdi
  404953:	e8 88 f5 ff ff       	call   403ee0 <_set_raw>
  404958:	bf 01 00 00 00       	mov    $0x1,%edi
  40495d:	48 be 6f 82 40 00 00 	movabs $0x40826f,%rsi
  404964:	00 00 00 
  404967:	ba 08 00 00 00       	mov    $0x8,%edx
  40496c:	e8 ef c6 ff ff       	call   401060 <write@plt>
  404971:	48 8b 45 f8          	mov    -0x8(%rbp),%rax
  404975:	48 8b 70 10          	mov    0x10(%rax),%rsi
  404979:	48 8b 45 f8          	mov    -0x8(%rbp),%rax
  40497d:	48 63 50 18          	movslq 0x18(%rax),%rdx
  404981:	bf 01 00 00 00       	mov    $0x1,%edi
  404986:	e8 d5 c6 ff ff       	call   401060 <write@plt>
  40498b:	48 83 c4 10          	add    $0x10,%rsp
  40498f:	5d                   	pop    %rbp
  404990:	c3                   	ret    
  404991:	66 2e 0f 1f 84 00 00 	cs nopw 0x0(%rax,%rax,1)
  404998:	00 00 00 
  40499b:	0f 1f 44 00 00       	nopl   0x0(%rax,%rax,1)

00000000004049a0 <_add>:
  4049a0:	55                   	push   %rbp
  4049a1:	48 89 e5             	mov    %rsp,%rbp
  4049a4:	48 83 ec 20          	sub    $0x20,%rsp
  4049a8:	40 88 f8             	mov    %dil,%al
  4049ab:	88 45 fb             	mov    %al,-0x5(%rbp)
  4049ae:	48 89 75 f0          	mov    %rsi,-0x10(%rbp)
  4049b2:	48 8b 45 f0          	mov    -0x10(%rbp),%rax
  4049b6:	81 78 08 ff 03 00 00 	cmpl   $0x3ff,0x8(%rax)
  4049bd:	0f 85 4f 00 00 00    	jne    404a12 <_add+0x72>
  4049c3:	48 8b 45 f0          	mov    -0x10(%rbp),%rax
  4049c7:	48 8b 38             	mov    (%rax),%rdi
  4049ca:	48 8b 45 f0          	mov    -0x10(%rbp),%rax
  4049ce:	48 63 70 08          	movslq 0x8(%rax),%rsi
  4049d2:	48 8b 45 f0          	mov    -0x10(%rbp),%rax
  4049d6:	8b 40 08             	mov    0x8(%rax),%eax
  4049d9:	05 00 04 00 00       	add    $0x400,%eax
  4049de:	83 c0 01             	add    $0x1,%eax
  4049e1:	48 63 d0             	movslq %eax,%rdx
  4049e4:	e8 a7 ec ff ff       	call   403690 <mm_realloc>
  4049e9:	48 89 c1             	mov    %rax,%rcx
  4049ec:	48 8b 45 f0          	mov    -0x10(%rbp),%rax
  4049f0:	48 89 08             	mov    %rcx,(%rax)
  4049f3:	48 8b 45 f0          	mov    -0x10(%rbp),%rax
  4049f7:	48 83 38 00          	cmpq   $0x0,(%rax)
  4049fb:	0f 85 0c 00 00 00    	jne    404a0d <_add+0x6d>
  404a01:	c7 45 fc ff ff ff ff 	movl   $0xffffffff,-0x4(%rbp)
  404a08:	e9 bc 00 00 00       	jmp    404ac9 <_add+0x129>
  404a0d:	e9 00 00 00 00       	jmp    404a12 <_add+0x72>
  404a12:	48 8b 45 f0          	mov    -0x10(%rbp),%rax
  404a16:	8b 40 0c             	mov    0xc(%rax),%eax
  404a19:	48 8b 4d f0          	mov    -0x10(%rbp),%rcx
  404a1d:	3b 41 08             	cmp    0x8(%rcx),%eax
  404a20:	0f 85 1a 00 00 00    	jne    404a40 <_add+0xa0>
  404a26:	8a 55 fb             	mov    -0x5(%rbp),%dl
  404a29:	48 8b 45 f0          	mov    -0x10(%rbp),%rax
  404a2d:	48 8b 00             	mov    (%rax),%rax
  404a30:	48 8b 4d f0          	mov    -0x10(%rbp),%rcx
  404a34:	48 63 49 08          	movslq 0x8(%rcx),%rcx
  404a38:	88 14 08             	mov    %dl,(%rax,%rcx,1)
  404a3b:	e9 5d 00 00 00       	jmp    404a9d <_add+0xfd>
  404a40:	48 8b 45 f0          	mov    -0x10(%rbp),%rax
  404a44:	8b 40 08             	mov    0x8(%rax),%eax
  404a47:	89 45 ec             	mov    %eax,-0x14(%rbp)
  404a4a:	8b 45 ec             	mov    -0x14(%rbp),%eax
  404a4d:	89 c1                	mov    %eax,%ecx
  404a4f:	83 c1 ff             	add    $0xffffffff,%ecx
  404a52:	89 4d ec             	mov    %ecx,-0x14(%rbp)
  404a55:	48 8b 4d f0          	mov    -0x10(%rbp),%rcx
  404a59:	3b 41 0c             	cmp    0xc(%rcx),%eax
  404a5c:	0f 8e 26 00 00 00    	jle    404a88 <_add+0xe8>
  404a62:	48 8b 45 f0          	mov    -0x10(%rbp),%rax
  404a66:	48 8b 00             	mov    (%rax),%rax
  404a69:	48 63 4d ec          	movslq -0x14(%rbp),%rcx
  404a6d:	8a 14 08             	mov    (%rax,%rcx,1),%dl
  404a70:	48 8b 45 f0          	mov    -0x10(%rbp),%rax
  404a74:	48 8b 00             	mov    (%rax),%rax
  404a77:	8b 4d ec             	mov    -0x14(%rbp),%ecx
  404a7a:	83 c1 01             	add    $0x1,%ecx
  404a7d:	48 63 c9             	movslq %ecx,%rcx
  404a80:	88 14 08             	mov    %dl,(%rax,%rcx,1)
  404a83:	e9 c2 ff ff ff       	jmp    404a4a <_add+0xaa>
  404a88:	8a 55 fb             	mov    -0x5(%rbp),%dl
  404a8b:	48 8b 45 f0          	mov    -0x10(%rbp),%rax
  404a8f:	48 8b 00             	mov    (%rax),%rax
  404a92:	48 8b 4d f0          	mov    -0x10(%rbp),%rcx
  404a96:	48 63 49 0c          	movslq 0xc(%rcx),%rcx
  404a9a:	88 14 08             	mov    %dl,(%rax,%rcx,1)
  404a9d:	48 8b 45 f0          	mov    -0x10(%rbp),%rax
  404aa1:	48 8b 00             	mov    (%rax),%rax
  404aa4:	48 8b 4d f0          	mov    -0x10(%rbp),%rcx
  404aa8:	8b 49 08             	mov    0x8(%rcx),%ecx
  404aab:	83 c1 01             	add    $0x1,%ecx
  404aae:	48 63 c9             	movslq %ecx,%rcx
  404ab1:	c6 04 08 00          	movb   $0x0,(%rax,%rcx,1)
  404ab5:	48 8b 45 f0          	mov    -0x10(%rbp),%rax
  404ab9:	8b 48 0c             	mov    0xc(%rax),%ecx
  404abc:	83 c1 01             	add    $0x1,%ecx
  404abf:	89 48 0c             	mov    %ecx,0xc(%rax)
  404ac2:	c7 45 fc 01 00 00 00 	movl   $0x1,-0x4(%rbp)
  404ac9:	8b 45 fc             	mov    -0x4(%rbp),%eax
  404acc:	48 83 c4 20          	add    $0x20,%rsp
  404ad0:	5d                   	pop    %rbp
  404ad1:	c3                   	ret    
  404ad2:	66 2e 0f 1f 84 00 00 	cs nopw 0x0(%rax,%rax,1)
  404ad9:	00 00 00 
  404adc:	0f 1f 40 00          	nopl   0x0(%rax)

0000000000404ae0 <_remove>:
  404ae0:	55                   	push   %rbp
  404ae1:	48 89 e5             	mov    %rsp,%rbp
  404ae4:	48 89 7d f0          	mov    %rdi,-0x10(%rbp)
  404ae8:	48 8b 45 f0          	mov    -0x10(%rbp),%rax
  404aec:	83 78 08 00          	cmpl   $0x0,0x8(%rax)
  404af0:	0f 85 0c 00 00 00    	jne    404b02 <_remove+0x22>
  404af6:	c7 45 fc 00 00 00 00 	movl   $0x0,-0x4(%rbp)
  404afd:	e9 b9 00 00 00       	jmp    404bbb <_remove+0xdb>
  404b02:	48 8b 45 f0          	mov    -0x10(%rbp),%rax
  404b06:	8b 40 0c             	mov    0xc(%rax),%eax
  404b09:	48 8b 4d f0          	mov    -0x10(%rbp),%rcx
  404b0d:	3b 41 08             	cmp    0x8(%rcx),%eax
  404b10:	0f 85 2a 00 00 00    	jne    404b40 <_remove+0x60>
  404b16:	48 8b 45 f0          	mov    -0x10(%rbp),%rax
  404b1a:	48 8b 00             	mov    (%rax),%rax
  404b1d:	48 8b 4d f0          	mov    -0x10(%rbp),%rcx
  404b21:	8b 49 08             	mov    0x8(%rcx),%ecx
  404b24:	83 e9 01             	sub    $0x1,%ecx
  404b27:	48 63 c9             	movslq %ecx,%rcx
  404b2a:	c6 04 08 00          	movb   $0x0,(%rax,%rcx,1)
  404b2e:	48 8b 45 f0          	mov    -0x10(%rbp),%rax
  404b32:	8b 40 08             	mov    0x8(%rax),%eax
  404b35:	83 e8 01             	sub    $0x1,%eax
  404b38:	89 45 fc             	mov    %eax,-0x4(%rbp)
  404b3b:	e9 7b 00 00 00       	jmp    404bbb <_remove+0xdb>
  404b40:	48 8b 45 f0          	mov    -0x10(%rbp),%rax
  404b44:	8b 40 0c             	mov    0xc(%rax),%eax
  404b47:	89 45 ec             	mov    %eax,-0x14(%rbp)
  404b4a:	8b 45 ec             	mov    -0x14(%rbp),%eax
  404b4d:	48 8b 4d f0          	mov    -0x10(%rbp),%rcx
  404b51:	3b 41 08             	cmp    0x8(%rcx),%eax
  404b54:	0f 8d 2f 00 00 00    	jge    404b89 <_remove+0xa9>
  404b5a:	48 8b 45 f0          	mov    -0x10(%rbp),%rax
  404b5e:	48 8b 00             	mov    (%rax),%rax
  404b61:	8b 4d ec             	mov    -0x14(%rbp),%ecx
  404b64:	83 c1 01             	add    $0x1,%ecx
  404b67:	48 63 c9             	movslq %ecx,%rcx
  404b6a:	8a 14 08             	mov    (%rax,%rcx,1),%dl
  404b6d:	48 8b 45 f0          	mov    -0x10(%rbp),%rax
  404b71:	48 8b 00             	mov    (%rax),%rax
  404b74:	48 63 4d ec          	movslq -0x14(%rbp),%rcx
  404b78:	88 14 08             	mov    %dl,(%rax,%rcx,1)
  404b7b:	8b 45 ec             	mov    -0x14(%rbp),%eax
  404b7e:	83 c0 01             	add    $0x1,%eax
  404b81:	89 45 ec             	mov    %eax,-0x14(%rbp)
  404b84:	e9 c1 ff ff ff       	jmp    404b4a <_remove+0x6a>
  404b89:	48 8b 45 f0          	mov    -0x10(%rbp),%rax
  404b8d:	48 8b 00             	mov    (%rax),%rax
  404b90:	48 8b 4d f0          	mov    -0x10(%rbp),%rcx
  404b94:	8b 49 08             	mov    0x8(%rcx),%ecx
  404b97:	83 e9 01             	sub    $0x1,%ecx
  404b9a:	48 63 c9             	movslq %ecx,%rcx
  404b9d:	c6 04 08 00          	movb   $0x0,(%rax,%rcx,1)
  404ba1:	48 8b 45 f0          	mov    -0x10(%rbp),%rax
  404ba5:	8b 48 08             	mov    0x8(%rax),%ecx
  404ba8:	83 c1 ff             	add    $0xffffffff,%ecx
  404bab:	89 48 08             	mov    %ecx,0x8(%rax)
  404bae:	48 8b 45 f0          	mov    -0x10(%rbp),%rax
  404bb2:	8b 40 08             	mov    0x8(%rax),%eax
  404bb5:	83 e8 01             	sub    $0x1,%eax
  404bb8:	89 45 fc             	mov    %eax,-0x4(%rbp)
  404bbb:	8b 45 fc             	mov    -0x4(%rbp),%eax
  404bbe:	5d                   	pop    %rbp
  404bbf:	c3                   	ret    

0000000000404bc0 <refresh_line>:
  404bc0:	55                   	push   %rbp
  404bc1:	48 89 e5             	mov    %rsp,%rbp
  404bc4:	48 83 ec 20          	sub    $0x20,%rsp
  404bc8:	48 89 7d f8          	mov    %rdi,-0x8(%rbp)
  404bcc:	48 8b 45 f8          	mov    -0x8(%rbp),%rax
  404bd0:	8b 40 08             	mov    0x8(%rax),%eax
  404bd3:	48 8b 4d f8          	mov    -0x8(%rbp),%rcx
  404bd7:	2b 41 0c             	sub    0xc(%rcx),%eax
  404bda:	89 45 f4             	mov    %eax,-0xc(%rbp)
  404bdd:	48 8b 45 f8          	mov    -0x8(%rbp),%rax
  404be1:	48 8b 00             	mov    (%rax),%rax
  404be4:	48 8b 4d f8          	mov    -0x8(%rbp),%rcx
  404be8:	48 63 49 0c          	movslq 0xc(%rcx),%rcx
  404bec:	48 01 c8             	add    %rcx,%rax
  404bef:	48 83 c0 ff          	add    $0xffffffffffffffff,%rax
  404bf3:	48 89 45 e8          	mov    %rax,-0x18(%rbp)
  404bf7:	48 8b 75 e8          	mov    -0x18(%rbp),%rsi
  404bfb:	48 bf 43 82 40 00 00 	movabs $0x408243,%rdi
  404c02:	00 00 00 
  404c05:	b0 00                	mov    $0x0,%al
  404c07:	e8 54 dc ff ff       	call   402860 <ft_printf>
  404c0c:	83 7d f4 00          	cmpl   $0x0,-0xc(%rbp)
  404c10:	0f 8e 14 00 00 00    	jle    404c2a <refresh_line+0x6a>
  404c16:	8b 75 f4             	mov    -0xc(%rbp),%esi
  404c19:	48 bf 78 82 40 00 00 	movabs $0x408278,%rdi
  404c20:	00 00 00 
  404c23:	b0 00                	mov    $0x0,%al
  404c25:	e8 36 dc ff ff       	call   402860 <ft_printf>
  404c2a:	b8 01 00 00 00       	mov    $0x1,%eax
  404c2f:	48 83 c4 20          	add    $0x20,%rsp
  404c33:	5d                   	pop    %rbp
  404c34:	c3                   	ret    
  404c35:	66 2e 0f 1f 84 00 00 	cs nopw 0x0(%rax,%rax,1)
  404c3c:	00 00 00 
  404c3f:	90                   	nop

0000000000404c40 <handle_special>:
  404c40:	55                   	push   %rbp
  404c41:	48 89 e5             	mov    %rsp,%rbp
  404c44:	48 83 ec 30          	sub    $0x30,%rsp
  404c48:	40 88 f0             	mov    %sil,%al
  404c4b:	48 89 7d e0          	mov    %rdi,-0x20(%rbp)
  404c4f:	88 45 df             	mov    %al,-0x21(%rbp)
  404c52:	0f be 45 df          	movsbl -0x21(%rbp),%eax
  404c56:	83 f8 1b             	cmp    $0x1b,%eax
  404c59:	0f 85 11 00 00 00    	jne    404c70 <handle_special+0x30>
  404c5f:	48 8b 7d e0          	mov    -0x20(%rbp),%rdi
  404c63:	e8 78 f7 ff ff       	call   4043e0 <handle_ansi>
  404c68:	89 45 e8             	mov    %eax,-0x18(%rbp)
  404c6b:	e9 4d 02 00 00       	jmp    404ebd <handle_special+0x27d>
  404c70:	0f be 45 df          	movsbl -0x21(%rbp),%eax
  404c74:	83 f8 7f             	cmp    $0x7f,%eax
  404c77:	0f 84 0d 00 00 00    	je     404c8a <handle_special+0x4a>
  404c7d:	0f be 45 df          	movsbl -0x21(%rbp),%eax
  404c81:	83 f8 08             	cmp    $0x8,%eax
  404c84:	0f 85 45 00 00 00    	jne    404ccf <handle_special+0x8f>
  404c8a:	48 8b 45 e0          	mov    -0x20(%rbp),%rax
  404c8e:	83 78 0c 00          	cmpl   $0x0,0xc(%rax)
  404c92:	0f 8e 37 00 00 00    	jle    404ccf <handle_special+0x8f>
  404c98:	48 8b 45 e0          	mov    -0x20(%rbp),%rax
  404c9c:	8b 48 0c             	mov    0xc(%rax),%ecx
  404c9f:	83 c1 ff             	add    $0xffffffff,%ecx
  404ca2:	89 48 0c             	mov    %ecx,0xc(%rax)
  404ca5:	48 8b 7d e0          	mov    -0x20(%rbp),%rdi
  404ca9:	e8 32 fe ff ff       	call   404ae0 <_remove>
  404cae:	bf 01 00 00 00       	mov    $0x1,%edi
  404cb3:	48 be 81 82 40 00 00 	movabs $0x408281,%rsi
  404cba:	00 00 00 
  404cbd:	ba 06 00 00 00       	mov    $0x6,%edx
  404cc2:	e8 99 c3 ff ff       	call   401060 <write@plt>
  404cc7:	89 45 e8             	mov    %eax,-0x18(%rbp)
  404cca:	e9 ee 01 00 00       	jmp    404ebd <handle_special+0x27d>
  404ccf:	0f be 45 df          	movsbl -0x21(%rbp),%eax
  404cd3:	83 f8 04             	cmp    $0x4,%eax
  404cd6:	0f 85 38 00 00 00    	jne    404d14 <handle_special+0xd4>
  404cdc:	48 8b 45 e0          	mov    -0x20(%rbp),%rax
  404ce0:	83 78 08 00          	cmpl   $0x0,0x8(%rax)
  404ce4:	0f 85 2a 00 00 00    	jne    404d14 <handle_special+0xd4>
  404cea:	48 8b 45 e0          	mov    -0x20(%rbp),%rax
  404cee:	48 8b 00             	mov    (%rax),%rax
  404cf1:	48 8b 4d e0          	mov    -0x20(%rbp),%rcx
  404cf5:	48 63 49 08          	movslq 0x8(%rcx),%rcx
  404cf9:	c6 04 08 00          	movb   $0x0,(%rax,%rcx,1)
  404cfd:	48 8b 45 e0          	mov    -0x20(%rbp),%rax
  404d01:	c7 40 1c 01 00 00 00 	movl   $0x1,0x1c(%rax)
  404d08:	c7 45 e8 01 00 00 00 	movl   $0x1,-0x18(%rbp)
  404d0f:	e9 a9 01 00 00       	jmp    404ebd <handle_special+0x27d>
  404d14:	0f be 45 df          	movsbl -0x21(%rbp),%eax
  404d18:	83 f8 03             	cmp    $0x3,%eax
  404d1b:	0f 85 30 00 00 00    	jne    404d51 <handle_special+0x111>
  404d21:	bf 01 00 00 00       	mov    $0x1,%edi
  404d26:	48 be 88 82 40 00 00 	movabs $0x408288,%rsi
  404d2d:	00 00 00 
  404d30:	ba 02 00 00 00       	mov    $0x2,%edx
  404d35:	e8 26 c3 ff ff       	call   401060 <write@plt>
  404d3a:	48 8b 45 e0          	mov    -0x20(%rbp),%rax
  404d3e:	c7 40 1c 02 00 00 00 	movl   $0x2,0x1c(%rax)
  404d45:	c7 45 e8 02 00 00 00 	movl   $0x2,-0x18(%rbp)
  404d4c:	e9 6c 01 00 00       	jmp    404ebd <handle_special+0x27d>
  404d51:	0f be 45 df          	movsbl -0x21(%rbp),%eax
  404d55:	83 f8 1c             	cmp    $0x1c,%eax
  404d58:	0f 85 21 00 00 00    	jne    404d7f <handle_special+0x13f>
  404d5e:	bf 01 00 00 00       	mov    $0x1,%edi
  404d63:	48 be 8b 82 40 00 00 	movabs $0x40828b,%rsi
  404d6a:	00 00 00 
  404d6d:	ba 12 00 00 00       	mov    $0x12,%edx
  404d72:	e8 e9 c2 ff ff       	call   401060 <write@plt>
  404d77:	89 45 e8             	mov    %eax,-0x18(%rbp)
  404d7a:	e9 3e 01 00 00       	jmp    404ebd <handle_special+0x27d>
  404d7f:	8a 4d df             	mov    -0x21(%rbp),%cl
  404d82:	48 8b 45 e0          	mov    -0x20(%rbp),%rax
  404d86:	88 4d fb             	mov    %cl,-0x5(%rbp)
  404d89:	48 89 45 f0          	mov    %rax,-0x10(%rbp)
  404d8d:	48 8b 45 f0          	mov    -0x10(%rbp),%rax
  404d91:	81 78 08 ff 03 00 00 	cmpl   $0x3ff,0x8(%rax)
  404d98:	0f 85 4f 00 00 00    	jne    404ded <handle_special+0x1ad>
  404d9e:	48 8b 45 f0          	mov    -0x10(%rbp),%rax
  404da2:	48 8b 38             	mov    (%rax),%rdi
  404da5:	48 8b 45 f0          	mov    -0x10(%rbp),%rax
  404da9:	48 63 70 08          	movslq 0x8(%rax),%rsi
  404dad:	48 8b 45 f0          	mov    -0x10(%rbp),%rax
  404db1:	8b 40 08             	mov    0x8(%rax),%eax
  404db4:	05 00 04 00 00       	add    $0x400,%eax
  404db9:	83 c0 01             	add    $0x1,%eax
  404dbc:	48 63 d0             	movslq %eax,%rdx
  404dbf:	e8 cc e8 ff ff       	call   403690 <mm_realloc>
  404dc4:	48 89 c1             	mov    %rax,%rcx
  404dc7:	48 8b 45 f0          	mov    -0x10(%rbp),%rax
  404dcb:	48 89 08             	mov    %rcx,(%rax)
  404dce:	48 8b 45 f0          	mov    -0x10(%rbp),%rax
  404dd2:	48 83 38 00          	cmpq   $0x0,(%rax)
  404dd6:	0f 85 0c 00 00 00    	jne    404de8 <handle_special+0x1a8>
  404ddc:	c7 45 fc ff ff ff ff 	movl   $0xffffffff,-0x4(%rbp)
  404de3:	e9 bc 00 00 00       	jmp    404ea4 <handle_special+0x264>
  404de8:	e9 00 00 00 00       	jmp    404ded <handle_special+0x1ad>
  404ded:	48 8b 45 f0          	mov    -0x10(%rbp),%rax
  404df1:	8b 40 0c             	mov    0xc(%rax),%eax
  404df4:	48 8b 4d f0          	mov    -0x10(%rbp),%rcx
  404df8:	3b 41 08             	cmp    0x8(%rcx),%eax
  404dfb:	0f 85 1a 00 00 00    	jne    404e1b <handle_special+0x1db>
  404e01:	8a 55 fb             	mov    -0x5(%rbp),%dl
  404e04:	48 8b 45 f0          	mov    -0x10(%rbp),%rax
  404e08:	48 8b 00             	mov    (%rax),%rax
  404e0b:	48 8b 4d f0          	mov    -0x10(%rbp),%rcx
  404e0f:	48 63 49 08          	movslq 0x8(%rcx),%rcx
  404e13:	88 14 08             	mov    %dl,(%rax,%rcx,1)
  404e16:	e9 5d 00 00 00       	jmp    404e78 <handle_special+0x238>
  404e1b:	48 8b 45 f0          	mov    -0x10(%rbp),%rax
  404e1f:	8b 40 08             	mov    0x8(%rax),%eax
  404e22:	89 45 ec             	mov    %eax,-0x14(%rbp)
  404e25:	8b 45 ec             	mov    -0x14(%rbp),%eax
  404e28:	89 c1                	mov    %eax,%ecx
  404e2a:	83 c1 ff             	add    $0xffffffff,%ecx
  404e2d:	89 4d ec             	mov    %ecx,-0x14(%rbp)
  404e30:	48 8b 4d f0          	mov    -0x10(%rbp),%rcx
  404e34:	3b 41 0c             	cmp    0xc(%rcx),%eax
  404e37:	0f 8e 26 00 00 00    	jle    404e63 <handle_special+0x223>
  404e3d:	48 8b 45 f0          	mov    -0x10(%rbp),%rax
  404e41:	48 8b 00             	mov    (%rax),%rax
  404e44:	48 63 4d ec          	movslq -0x14(%rbp),%rcx
  404e48:	8a 14 08             	mov    (%rax,%rcx,1),%dl
  404e4b:	48 8b 45 f0          	mov    -0x10(%rbp),%rax
  404e4f:	48 8b 00             	mov    (%rax),%rax
  404e52:	8b 4d ec             	mov    -0x14(%rbp),%ecx
  404e55:	83 c1 01             	add    $0x1,%ecx
  404e58:	48 63 c9             	movslq %ecx,%rcx
  404e5b:	88 14 08             	mov    %dl,(%rax,%rcx,1)
  404e5e:	e9 c2 ff ff ff       	jmp    404e25 <handle_special+0x1e5>
  404e63:	8a 55 fb             	mov    -0x5(%rbp),%dl
  404e66:	48 8b 45 f0          	mov    -0x10(%rbp),%rax
  404e6a:	48 8b 00             	mov    (%rax),%rax
  404e6d:	48 8b 4d f0          	mov    -0x10(%rbp),%rcx
  404e71:	48 63 49 0c          	movslq 0xc(%rcx),%rcx
  404e75:	88 14 08             	mov    %dl,(%rax,%rcx,1)
  404e78:	48 8b 45 f0          	mov    -0x10(%rbp),%rax
  404e7c:	48 8b 00             	mov    (%rax),%rax
  404e7f:	48 8b 4d f0          	mov    -0x10(%rbp),%rcx
  404e83:	8b 49 08             	mov    0x8(%rcx),%ecx
  404e86:	83 c1 01             	add    $0x1,%ecx
  404e89:	48 63 c9             	movslq %ecx,%rcx
  404e8c:	c6 04 08 00          	movb   $0x0,(%rax,%rcx,1)
  404e90:	48 8b 45 f0          	mov    -0x10(%rbp),%rax
  404e94:	8b 48 0c             	mov    0xc(%rax),%ecx
  404e97:	83 c1 01             	add    $0x1,%ecx
  404e9a:	89 48 0c             	mov    %ecx,0xc(%rax)
  404e9d:	c7 45 fc 01 00 00 00 	movl   $0x1,-0x4(%rbp)
  404ea4:	8b 4d fc             	mov    -0x4(%rbp),%ecx
  404ea7:	48 8b 45 e0          	mov    -0x20(%rbp),%rax
  404eab:	03 48 08             	add    0x8(%rax),%ecx
  404eae:	89 48 08             	mov    %ecx,0x8(%rax)
  404eb1:	48 8b 7d e0          	mov    -0x20(%rbp),%rdi
  404eb5:	e8 06 fd ff ff       	call   404bc0 <refresh_line>
  404eba:	89 45 e8             	mov    %eax,-0x18(%rbp)
  404ebd:	8b 45 e8             	mov    -0x18(%rbp),%eax
  404ec0:	48 83 c4 30          	add    $0x30,%rsp
  404ec4:	5d                   	pop    %rbp
  404ec5:	c3                   	ret    
  404ec6:	66 2e 0f 1f 84 00 00 	cs nopw 0x0(%rax,%rax,1)
  404ecd:	00 00 00 

0000000000404ed0 <_read>:
  404ed0:	55                   	push   %rbp
  404ed1:	48 89 e5             	mov    %rsp,%rbp
  404ed4:	48 83 ec 30          	sub    $0x30,%rsp
  404ed8:	48 89 7d e0          	mov    %rdi,-0x20(%rbp)
  404edc:	48 8b 45 e0          	mov    -0x20(%rbp),%rax
  404ee0:	c7 40 08 00 00 00 00 	movl   $0x0,0x8(%rax)
  404ee7:	48 8b 45 e0          	mov    -0x20(%rbp),%rax
  404eeb:	c7 40 0c 00 00 00 00 	movl   $0x0,0xc(%rax)
  404ef2:	48 8b 45 e0          	mov    -0x20(%rbp),%rax
  404ef6:	83 78 1c 03          	cmpl   $0x3,0x1c(%rax)
  404efa:	0f 86 d0 01 00 00    	jbe    4050d0 <_read+0x200>
  404f00:	31 ff                	xor    %edi,%edi
  404f02:	48 8d 75 db          	lea    -0x25(%rbp),%rsi
  404f06:	ba 01 00 00 00       	mov    $0x1,%edx
  404f0b:	e8 b0 c1 ff ff       	call   4010c0 <read@plt>
  404f10:	89 45 dc             	mov    %eax,-0x24(%rbp)
  404f13:	83 7d dc 00          	cmpl   $0x0,-0x24(%rbp)
  404f17:	0f 8d 10 00 00 00    	jge    404f2d <_read+0x5d>
  404f1d:	48 8b 45 e0          	mov    -0x20(%rbp),%rax
  404f21:	c7 40 1c 00 00 00 00 	movl   $0x0,0x1c(%rax)
  404f28:	e9 9e 01 00 00       	jmp    4050cb <_read+0x1fb>
  404f2d:	48 8b 45 e0          	mov    -0x20(%rbp),%rax
  404f31:	83 78 1c 05          	cmpl   $0x5,0x1c(%rax)
  404f35:	0f 84 1f 00 00 00    	je     404f5a <_read+0x8a>
  404f3b:	0f be 45 db          	movsbl -0x25(%rbp),%eax
  404f3f:	83 f8 0d             	cmp    $0xd,%eax
  404f42:	0f 84 0d 00 00 00    	je     404f55 <_read+0x85>
  404f48:	0f be 45 db          	movsbl -0x25(%rbp),%eax
  404f4c:	83 f8 0a             	cmp    $0xa,%eax
  404f4f:	0f 85 05 00 00 00    	jne    404f5a <_read+0x8a>
  404f55:	e9 76 01 00 00       	jmp    4050d0 <_read+0x200>
  404f5a:	0f be 45 db          	movsbl -0x25(%rbp),%eax
  404f5e:	83 f8 20             	cmp    $0x20,%eax
  404f61:	0f 8c 0d 00 00 00    	jl     404f74 <_read+0xa4>
  404f67:	0f be 45 db          	movsbl -0x25(%rbp),%eax
  404f6b:	83 f8 7e             	cmp    $0x7e,%eax
  404f6e:	0f 8e 12 00 00 00    	jle    404f86 <_read+0xb6>
  404f74:	48 8b 7d e0          	mov    -0x20(%rbp),%rdi
  404f78:	0f be 75 db          	movsbl -0x25(%rbp),%esi
  404f7c:	e8 bf fc ff ff       	call   404c40 <handle_special>
  404f81:	e9 3b 01 00 00       	jmp    4050c1 <_read+0x1f1>
  404f86:	8a 4d db             	mov    -0x25(%rbp),%cl
  404f89:	48 8b 45 e0          	mov    -0x20(%rbp),%rax
  404f8d:	88 4d fb             	mov    %cl,-0x5(%rbp)
  404f90:	48 89 45 f0          	mov    %rax,-0x10(%rbp)
  404f94:	48 8b 45 f0          	mov    -0x10(%rbp),%rax
  404f98:	81 78 08 ff 03 00 00 	cmpl   $0x3ff,0x8(%rax)
  404f9f:	0f 85 4f 00 00 00    	jne    404ff4 <_read+0x124>
  404fa5:	48 8b 45 f0          	mov    -0x10(%rbp),%rax
  404fa9:	48 8b 38             	mov    (%rax),%rdi
  404fac:	48 8b 45 f0          	mov    -0x10(%rbp),%rax
  404fb0:	48 63 70 08          	movslq 0x8(%rax),%rsi
  404fb4:	48 8b 45 f0          	mov    -0x10(%rbp),%rax
  404fb8:	8b 40 08             	mov    0x8(%rax),%eax
  404fbb:	05 00 04 00 00       	add    $0x400,%eax
  404fc0:	83 c0 01             	add    $0x1,%eax
  404fc3:	48 63 d0             	movslq %eax,%rdx
  404fc6:	e8 c5 e6 ff ff       	call   403690 <mm_realloc>
  404fcb:	48 89 c1             	mov    %rax,%rcx
  404fce:	48 8b 45 f0          	mov    -0x10(%rbp),%rax
  404fd2:	48 89 08             	mov    %rcx,(%rax)
  404fd5:	48 8b 45 f0          	mov    -0x10(%rbp),%rax
  404fd9:	48 83 38 00          	cmpq   $0x0,(%rax)
  404fdd:	0f 85 0c 00 00 00    	jne    404fef <_read+0x11f>
  404fe3:	c7 45 fc ff ff ff ff 	movl   $0xffffffff,-0x4(%rbp)
  404fea:	e9 bc 00 00 00       	jmp    4050ab <_read+0x1db>
  404fef:	e9 00 00 00 00       	jmp    404ff4 <_read+0x124>
  404ff4:	48 8b 45 f0          	mov    -0x10(%rbp),%rax
  404ff8:	8b 40 0c             	mov    0xc(%rax),%eax
  404ffb:	48 8b 4d f0          	mov    -0x10(%rbp),%rcx
  404fff:	3b 41 08             	cmp    0x8(%rcx),%eax
  405002:	0f 85 1a 00 00 00    	jne    405022 <_read+0x152>
  405008:	8a 55 fb             	mov    -0x5(%rbp),%dl
  40500b:	48 8b 45 f0          	mov    -0x10(%rbp),%rax
  40500f:	48 8b 00             	mov    (%rax),%rax
  405012:	48 8b 4d f0          	mov    -0x10(%rbp),%rcx
  405016:	48 63 49 08          	movslq 0x8(%rcx),%rcx
  40501a:	88 14 08             	mov    %dl,(%rax,%rcx,1)
  40501d:	e9 5d 00 00 00       	jmp    40507f <_read+0x1af>
  405022:	48 8b 45 f0          	mov    -0x10(%rbp),%rax
  405026:	8b 40 08             	mov    0x8(%rax),%eax
  405029:	89 45 ec             	mov    %eax,-0x14(%rbp)
  40502c:	8b 45 ec             	mov    -0x14(%rbp),%eax
  40502f:	89 c1                	mov    %eax,%ecx
  405031:	83 c1 ff             	add    $0xffffffff,%ecx
  405034:	89 4d ec             	mov    %ecx,-0x14(%rbp)
  405037:	48 8b 4d f0          	mov    -0x10(%rbp),%rcx
  40503b:	3b 41 0c             	cmp    0xc(%rcx),%eax
  40503e:	0f 8e 26 00 00 00    	jle    40506a <_read+0x19a>
  405044:	48 8b 45 f0          	mov    -0x10(%rbp),%rax
  405048:	48 8b 00             	mov    (%rax),%rax
  40504b:	48 63 4d ec          	movslq -0x14(%rbp),%rcx
  40504f:	8a 14 08             	mov    (%rax,%rcx,1),%dl
  405052:	48 8b 45 f0          	mov    -0x10(%rbp),%rax
  405056:	48 8b 00             	mov    (%rax),%rax
  405059:	8b 4d ec             	mov    -0x14(%rbp),%ecx
  40505c:	83 c1 01             	add    $0x1,%ecx
  40505f:	48 63 c9             	movslq %ecx,%rcx
  405062:	88 14 08             	mov    %dl,(%rax,%rcx,1)
  405065:	e9 c2 ff ff ff       	jmp    40502c <_read+0x15c>
  40506a:	8a 55 fb             	mov    -0x5(%rbp),%dl
  40506d:	48 8b 45 f0          	mov    -0x10(%rbp),%rax
  405071:	48 8b 00             	mov    (%rax),%rax
  405074:	48 8b 4d f0          	mov    -0x10(%rbp),%rcx
  405078:	48 63 49 0c          	movslq 0xc(%rcx),%rcx
  40507c:	88 14 08             	mov    %dl,(%rax,%rcx,1)
  40507f:	48 8b 45 f0          	mov    -0x10(%rbp),%rax
  405083:	48 8b 00             	mov    (%rax),%rax
  405086:	48 8b 4d f0          	mov    -0x10(%rbp),%rcx
  40508a:	8b 49 08             	mov    0x8(%rcx),%ecx
  40508d:	83 c1 01             	add    $0x1,%ecx
  405090:	48 63 c9             	movslq %ecx,%rcx
  405093:	c6 04 08 00          	movb   $0x0,(%rax,%rcx,1)
  405097:	48 8b 45 f0          	mov    -0x10(%rbp),%rax
  40509b:	8b 48 0c             	mov    0xc(%rax),%ecx
  40509e:	83 c1 01             	add    $0x1,%ecx
  4050a1:	89 48 0c             	mov    %ecx,0xc(%rax)
  4050a4:	c7 45 fc 01 00 00 00 	movl   $0x1,-0x4(%rbp)
  4050ab:	8b 4d fc             	mov    -0x4(%rbp),%ecx
  4050ae:	48 8b 45 e0          	mov    -0x20(%rbp),%rax
  4050b2:	03 48 08             	add    0x8(%rax),%ecx
  4050b5:	89 48 08             	mov    %ecx,0x8(%rax)
  4050b8:	48 8b 7d e0          	mov    -0x20(%rbp),%rdi
  4050bc:	e8 ff fa ff ff       	call   404bc0 <refresh_line>
  4050c1:	e9 00 00 00 00       	jmp    4050c6 <_read+0x1f6>
  4050c6:	e9 00 00 00 00       	jmp    4050cb <_read+0x1fb>
  4050cb:	e9 22 fe ff ff       	jmp    404ef2 <_read+0x22>
  4050d0:	48 8b 45 e0          	mov    -0x20(%rbp),%rax
  4050d4:	8b 40 08             	mov    0x8(%rax),%eax
  4050d7:	48 83 c4 30          	add    $0x30,%rsp
  4050db:	5d                   	pop    %rbp
  4050dc:	c3                   	ret    
  4050dd:	0f 1f 00             	nopl   (%rax)

00000000004050e0 <_history_add>:
  4050e0:	55                   	push   %rbp
  4050e1:	48 89 e5             	mov    %rsp,%rbp
  4050e4:	48 83 ec 20          	sub    $0x20,%rsp
  4050e8:	48 89 7d f0          	mov    %rdi,-0x10(%rbp)
  4050ec:	48 89 75 e8          	mov    %rsi,-0x18(%rbp)
  4050f0:	48 8b 7d f0          	mov    -0x10(%rbp),%rdi
  4050f4:	e8 57 09 00 00       	call   405a50 <ft_strlen>
  4050f9:	89 45 e4             	mov    %eax,-0x1c(%rbp)
  4050fc:	48 83 7d e8 00       	cmpq   $0x0,-0x18(%rbp)
  405101:	0f 95 c0             	setne  %al
  405104:	34 ff                	xor    $0xff,%al
  405106:	24 01                	and    $0x1,%al
  405108:	0f b6 c0             	movzbl %al,%eax
  40510b:	48 98                	cltq   
  40510d:	48 83 f8 00          	cmp    $0x0,%rax
  405111:	0f 84 0d 00 00 00    	je     405124 <_history_add+0x44>
  405117:	48 c7 45 f8 00 00 00 	movq   $0x0,-0x8(%rbp)
  40511e:	00 
  40511f:	e9 c2 00 00 00       	jmp    4051e6 <_history_add+0x106>
  405124:	48 8b 7d f0          	mov    -0x10(%rbp),%rdi
  405128:	8b 45 e4             	mov    -0x1c(%rbp),%eax
  40512b:	83 c0 01             	add    $0x1,%eax
  40512e:	48 63 f0             	movslq %eax,%rsi
  405131:	e8 3a 0a 00 00       	call   405b70 <memdup>
  405136:	48 89 c2             	mov    %rax,%rdx
  405139:	48 8b 45 e8          	mov    -0x18(%rbp),%rax
  40513d:	48 8b 4d e8          	mov    -0x18(%rbp),%rcx
  405141:	48 63 89 00 20 00 00 	movslq 0x2000(%rcx),%rcx
  405148:	48 89 14 c8          	mov    %rdx,(%rax,%rcx,8)
  40514c:	48 8b 45 e8          	mov    -0x18(%rbp),%rax
  405150:	8b 80 00 20 00 00    	mov    0x2000(%rax),%eax
  405156:	83 c0 01             	add    $0x1,%eax
  405159:	b9 00 04 00 00       	mov    $0x400,%ecx
  40515e:	99                   	cltd   
  40515f:	f7 f9                	idiv   %ecx
  405161:	48 8b 45 e8          	mov    -0x18(%rbp),%rax
  405165:	89 90 00 20 00 00    	mov    %edx,0x2000(%rax)
  40516b:	48 8b 45 e8          	mov    -0x18(%rbp),%rax
  40516f:	81 b8 04 20 00 00 00 	cmpl   $0x400,0x2004(%rax)
  405176:	04 00 00 
  405179:	0f 9c c0             	setl   %al
  40517c:	24 01                	and    $0x1,%al
  40517e:	0f b6 c8             	movzbl %al,%ecx
  405181:	48 8b 45 e8          	mov    -0x18(%rbp),%rax
  405185:	03 88 04 20 00 00    	add    0x2004(%rax),%ecx
  40518b:	89 88 04 20 00 00    	mov    %ecx,0x2004(%rax)
  405191:	48 8b 45 e8          	mov    -0x18(%rbp),%rax
  405195:	83 b8 08 20 00 00 00 	cmpl   $0x0,0x2008(%rax)
  40519c:	0f 9f c0             	setg   %al
  40519f:	24 01                	and    $0x1,%al
  4051a1:	0f b6 c0             	movzbl %al,%eax
  4051a4:	48 98                	cltq   
  4051a6:	48 83 f8 00          	cmp    $0x0,%rax
  4051aa:	0f 84 1f 00 00 00    	je     4051cf <_history_add+0xef>
  4051b0:	48 8b 45 e8          	mov    -0x18(%rbp),%rax
  4051b4:	8b b8 08 20 00 00    	mov    0x2008(%rax),%edi
  4051ba:	48 8b 55 f0          	mov    -0x10(%rbp),%rdx
  4051be:	48 be e4 82 40 00 00 	movabs $0x4082e4,%rsi
  4051c5:	00 00 00 
  4051c8:	b0 00                	mov    $0x0,%al
  4051ca:	e8 d1 d8 ff ff       	call   402aa0 <ft_fprintf>
  4051cf:	48 8b 45 e8          	mov    -0x18(%rbp),%rax
  4051d3:	48 8b 4d e8          	mov    -0x18(%rbp),%rcx
  4051d7:	48 63 89 00 20 00 00 	movslq 0x2000(%rcx),%rcx
  4051de:	48 8b 04 c8          	mov    (%rax,%rcx,8),%rax
  4051e2:	48 89 45 f8          	mov    %rax,-0x8(%rbp)
  4051e6:	48 8b 45 f8          	mov    -0x8(%rbp),%rax
  4051ea:	48 83 c4 20          	add    $0x20,%rsp
  4051ee:	5d                   	pop    %rbp
  4051ef:	c3                   	ret    

00000000004051f0 <_clear>:
  4051f0:	55                   	push   %rbp
  4051f1:	48 89 e5             	mov    %rsp,%rbp
  4051f4:	48 83 ec 10          	sub    $0x10,%rsp
  4051f8:	48 89 7d f0          	mov    %rdi,-0x10(%rbp)
  4051fc:	48 83 7d f0 00       	cmpq   $0x0,-0x10(%rbp)
  405201:	0f 95 c0             	setne  %al
  405204:	34 ff                	xor    $0xff,%al
  405206:	24 01                	and    $0x1,%al
  405208:	0f b6 c0             	movzbl %al,%eax
  40520b:	48 98                	cltq   
  40520d:	48 83 f8 00          	cmp    $0x0,%rax
  405211:	0f 84 0d 00 00 00    	je     405224 <_clear+0x34>
  405217:	48 c7 45 f8 00 00 00 	movq   $0x0,-0x8(%rbp)
  40521e:	00 
  40521f:	e9 70 00 00 00       	jmp    405294 <_clear+0xa4>
  405224:	e9 00 00 00 00       	jmp    405229 <_clear+0x39>
  405229:	48 8b 4d f0          	mov    -0x10(%rbp),%rcx
  40522d:	8b 81 04 20 00 00    	mov    0x2004(%rcx),%eax
  405233:	83 c0 ff             	add    $0xffffffff,%eax
  405236:	89 81 04 20 00 00    	mov    %eax,0x2004(%rcx)
  40523c:	83 f8 00             	cmp    $0x0,%eax
  40523f:	0f 8e 34 00 00 00    	jle    405279 <_clear+0x89>
  405245:	48 8b 45 f0          	mov    -0x10(%rbp),%rax
  405249:	48 8b 4d f0          	mov    -0x10(%rbp),%rcx
  40524d:	48 63 89 04 20 00 00 	movslq 0x2004(%rcx),%rcx
  405254:	48 8b 3c c8          	mov    (%rax,%rcx,8),%rdi
  405258:	e8 e3 bd ff ff       	call   401040 <free@plt>
  40525d:	48 8b 45 f0          	mov    -0x10(%rbp),%rax
  405261:	48 8b 4d f0          	mov    -0x10(%rbp),%rcx
  405265:	48 63 89 04 20 00 00 	movslq 0x2004(%rcx),%rcx
  40526c:	48 c7 04 c8 00 00 00 	movq   $0x0,(%rax,%rcx,8)
  405273:	00 
  405274:	e9 b0 ff ff ff       	jmp    405229 <_clear+0x39>
  405279:	e9 00 00 00 00       	jmp    40527e <_clear+0x8e>
  40527e:	48 8b 45 f0          	mov    -0x10(%rbp),%rax
  405282:	c7 80 00 20 00 00 00 	movl   $0x0,0x2000(%rax)
  405289:	00 00 00 
  40528c:	48 c7 45 f8 00 00 00 	movq   $0x0,-0x8(%rbp)
  405293:	00 
  405294:	48 8b 45 f8          	mov    -0x8(%rbp),%rax
  405298:	48 83 c4 10          	add    $0x10,%rsp
  40529c:	5d                   	pop    %rbp
  40529d:	c3                   	ret    
  40529e:	66 90                	xchg   %ax,%ax

00000000004052a0 <_history_manager>:
  4052a0:	55                   	push   %rbp
  4052a1:	48 89 e5             	mov    %rsp,%rbp
  4052a4:	48 83 ec 50          	sub    $0x50,%rsp
  4052a8:	89 7d c4             	mov    %edi,-0x3c(%rbp)
  4052ab:	48 89 75 b8          	mov    %rsi,-0x48(%rbp)
  4052af:	83 7d c4 00          	cmpl   $0x0,-0x3c(%rbp)
  4052b3:	0f 94 c0             	sete   %al
  4052b6:	24 01                	and    $0x1,%al
  4052b8:	0f b6 c0             	movzbl %al,%eax
  4052bb:	48 98                	cltq   
  4052bd:	48 83 f8 00          	cmp    $0x0,%rax
  4052c1:	0f 84 45 00 00 00    	je     40530c <_history_manager+0x6c>
  4052c7:	48 63 04 25 f0 20 41 	movslq 0x4120f0,%rax
  4052ce:	00 
  4052cf:	48 8b 04 c5 f0 00 41 	mov    0x4100f0(,%rax,8),%rax
  4052d6:	00 
  4052d7:	48 89 45 b0          	mov    %rax,-0x50(%rbp)
  4052db:	48 83 7d b0 00       	cmpq   $0x0,-0x50(%rbp)
  4052e0:	0f 84 19 00 00 00    	je     4052ff <_history_manager+0x5f>
  4052e6:	8b 04 25 f0 20 41 00 	mov    0x4120f0,%eax
  4052ed:	83 c0 01             	add    $0x1,%eax
  4052f0:	b9 00 04 00 00       	mov    $0x400,%ecx
  4052f5:	99                   	cltd   
  4052f6:	f7 f9                	idiv   %ecx
  4052f8:	89 14 25 f0 20 41 00 	mov    %edx,0x4120f0
  4052ff:	48 8b 45 b0          	mov    -0x50(%rbp),%rax
  405303:	48 89 45 c8          	mov    %rax,-0x38(%rbp)
  405307:	e9 2e 03 00 00       	jmp    40563a <_history_manager+0x39a>
  40530c:	83 7d c4 01          	cmpl   $0x1,-0x3c(%rbp)
  405310:	0f 94 c0             	sete   %al
  405313:	24 01                	and    $0x1,%al
  405315:	0f b6 c0             	movzbl %al,%eax
  405318:	48 98                	cltq   
  40531a:	48 83 f8 00          	cmp    $0x0,%rax
  40531e:	0f 84 63 00 00 00    	je     405387 <_history_manager+0xe7>
  405324:	8b 04 25 f0 20 41 00 	mov    0x4120f0,%eax
  40532b:	83 e8 01             	sub    $0x1,%eax
  40532e:	05 00 04 00 00       	add    $0x400,%eax
  405333:	b9 00 04 00 00       	mov    $0x400,%ecx
  405338:	99                   	cltd   
  405339:	f7 f9                	idiv   %ecx
  40533b:	89 14 25 f0 20 41 00 	mov    %edx,0x4120f0
  405342:	48 63 04 25 f0 20 41 	movslq 0x4120f0,%rax
  405349:	00 
  40534a:	48 8b 04 c5 f0 00 41 	mov    0x4100f0(,%rax,8),%rax
  405351:	00 
  405352:	48 89 45 b0          	mov    %rax,-0x50(%rbp)
  405356:	48 83 7d b0 00       	cmpq   $0x0,-0x50(%rbp)
  40535b:	0f 85 19 00 00 00    	jne    40537a <_history_manager+0xda>
  405361:	8b 04 25 f0 20 41 00 	mov    0x4120f0,%eax
  405368:	83 c0 01             	add    $0x1,%eax
  40536b:	b9 00 04 00 00       	mov    $0x400,%ecx
  405370:	99                   	cltd   
  405371:	f7 f9                	idiv   %ecx
  405373:	89 14 25 f0 20 41 00 	mov    %edx,0x4120f0
  40537a:	48 8b 45 b0          	mov    -0x50(%rbp),%rax
  40537e:	48 89 45 c8          	mov    %rax,-0x38(%rbp)
  405382:	e9 b3 02 00 00       	jmp    40563a <_history_manager+0x39a>
  405387:	83 7d c4 03          	cmpl   $0x3,-0x3c(%rbp)
  40538b:	0f 94 c0             	sete   %al
  40538e:	24 01                	and    $0x1,%al
  405390:	0f b6 c0             	movzbl %al,%eax
  405393:	48 98                	cltq   
  405395:	48 83 f8 00          	cmp    $0x0,%rax
  405399:	0f 84 11 01 00 00    	je     4054b0 <_history_manager+0x210>
  40539f:	48 8b 45 b8          	mov    -0x48(%rbp),%rax
  4053a3:	48 89 45 e0          	mov    %rax,-0x20(%rbp)
  4053a7:	48 b8 f0 00 41 00 00 	movabs $0x4100f0,%rax
  4053ae:	00 00 00 
  4053b1:	48 89 45 d8          	mov    %rax,-0x28(%rbp)
  4053b5:	48 8b 7d e0          	mov    -0x20(%rbp),%rdi
  4053b9:	e8 92 06 00 00       	call   405a50 <ft_strlen>
  4053be:	89 45 d4             	mov    %eax,-0x2c(%rbp)
  4053c1:	48 83 7d d8 00       	cmpq   $0x0,-0x28(%rbp)
  4053c6:	0f 95 c0             	setne  %al
  4053c9:	34 ff                	xor    $0xff,%al
  4053cb:	a8 01                	test   $0x1,%al
  4053cd:	0f 85 05 00 00 00    	jne    4053d8 <_history_manager+0x138>
  4053d3:	e9 0d 00 00 00       	jmp    4053e5 <_history_manager+0x145>
  4053d8:	48 c7 45 e8 00 00 00 	movq   $0x0,-0x18(%rbp)
  4053df:	00 
  4053e0:	e9 be 00 00 00       	jmp    4054a3 <_history_manager+0x203>
  4053e5:	48 8b 7d e0          	mov    -0x20(%rbp),%rdi
  4053e9:	8b 45 d4             	mov    -0x2c(%rbp),%eax
  4053ec:	83 c0 01             	add    $0x1,%eax
  4053ef:	48 63 f0             	movslq %eax,%rsi
  4053f2:	e8 79 07 00 00       	call   405b70 <memdup>
  4053f7:	48 89 c2             	mov    %rax,%rdx
  4053fa:	48 8b 45 d8          	mov    -0x28(%rbp),%rax
  4053fe:	48 8b 4d d8          	mov    -0x28(%rbp),%rcx
  405402:	48 63 89 00 20 00 00 	movslq 0x2000(%rcx),%rcx
  405409:	48 89 14 c8          	mov    %rdx,(%rax,%rcx,8)
  40540d:	48 8b 45 d8          	mov    -0x28(%rbp),%rax
  405411:	8b 80 00 20 00 00    	mov    0x2000(%rax),%eax
  405417:	83 c0 01             	add    $0x1,%eax
  40541a:	b9 00 04 00 00       	mov    $0x400,%ecx
  40541f:	99                   	cltd   
  405420:	f7 f9                	idiv   %ecx
  405422:	48 8b 45 d8          	mov    -0x28(%rbp),%rax
  405426:	89 90 00 20 00 00    	mov    %edx,0x2000(%rax)
  40542c:	48 8b 45 d8          	mov    -0x28(%rbp),%rax
  405430:	81 b8 04 20 00 00 00 	cmpl   $0x400,0x2004(%rax)
  405437:	04 00 00 
  40543a:	0f 9c c0             	setl   %al
  40543d:	24 01                	and    $0x1,%al
  40543f:	0f b6 c8             	movzbl %al,%ecx
  405442:	48 8b 45 d8          	mov    -0x28(%rbp),%rax
  405446:	03 88 04 20 00 00    	add    0x2004(%rax),%ecx
  40544c:	89 88 04 20 00 00    	mov    %ecx,0x2004(%rax)
  405452:	48 8b 45 d8          	mov    -0x28(%rbp),%rax
  405456:	83 b8 08 20 00 00 00 	cmpl   $0x0,0x2008(%rax)
  40545d:	0f 9f c0             	setg   %al
  405460:	a8 01                	test   $0x1,%al
  405462:	0f 85 05 00 00 00    	jne    40546d <_history_manager+0x1cd>
  405468:	e9 1f 00 00 00       	jmp    40548c <_history_manager+0x1ec>
  40546d:	48 8b 45 d8          	mov    -0x28(%rbp),%rax
  405471:	8b b8 08 20 00 00    	mov    0x2008(%rax),%edi
  405477:	48 8b 55 e0          	mov    -0x20(%rbp),%rdx
  40547b:	48 be e4 82 40 00 00 	movabs $0x4082e4,%rsi
  405482:	00 00 00 
  405485:	b0 00                	mov    $0x0,%al
  405487:	e8 14 d6 ff ff       	call   402aa0 <ft_fprintf>
  40548c:	48 8b 45 d8          	mov    -0x28(%rbp),%rax
  405490:	48 8b 4d d8          	mov    -0x28(%rbp),%rcx
  405494:	48 63 89 00 20 00 00 	movslq 0x2000(%rcx),%rcx
  40549b:	48 8b 04 c8          	mov    (%rax,%rcx,8),%rax
  40549f:	48 89 45 e8          	mov    %rax,-0x18(%rbp)
  4054a3:	48 8b 45 e8          	mov    -0x18(%rbp),%rax
  4054a7:	48 89 45 c8          	mov    %rax,-0x38(%rbp)
  4054ab:	e9 8a 01 00 00       	jmp    40563a <_history_manager+0x39a>
  4054b0:	83 7d c4 04          	cmpl   $0x4,-0x3c(%rbp)
  4054b4:	0f 85 13 00 00 00    	jne    4054cd <_history_manager+0x22d>
  4054ba:	8b 04 25 f4 20 41 00 	mov    0x4120f4,%eax
  4054c1:	89 04 25 f0 20 41 00 	mov    %eax,0x4120f0
  4054c8:	e9 56 01 00 00       	jmp    405623 <_history_manager+0x383>
  4054cd:	83 7d c4 02          	cmpl   $0x2,-0x3c(%rbp)
  4054d1:	0f 85 13 00 00 00    	jne    4054ea <_history_manager+0x24a>
  4054d7:	48 b8 f0 00 41 00 00 	movabs $0x4100f0,%rax
  4054de:	00 00 00 
  4054e1:	48 89 45 c8          	mov    %rax,-0x38(%rbp)
  4054e5:	e9 50 01 00 00       	jmp    40563a <_history_manager+0x39a>
  4054ea:	83 7d c4 06          	cmpl   $0x6,-0x3c(%rbp)
  4054ee:	0f 94 c0             	sete   %al
  4054f1:	24 01                	and    $0x1,%al
  4054f3:	0f b6 c0             	movzbl %al,%eax
  4054f6:	48 98                	cltq   
  4054f8:	48 83 f8 00          	cmp    $0x0,%rax
  4054fc:	0f 84 50 00 00 00    	je     405552 <_history_manager+0x2b2>
  405502:	48 8b 7d b8          	mov    -0x48(%rbp),%rdi
  405506:	48 be f0 00 41 00 00 	movabs $0x4100f0,%rsi
  40550d:	00 00 00 
  405510:	e8 3b 01 00 00       	call   405650 <_load_history>
  405515:	83 f8 00             	cmp    $0x0,%eax
  405518:	0f 9c c0             	setl   %al
  40551b:	24 01                	and    $0x1,%al
  40551d:	0f b6 c0             	movzbl %al,%eax
  405520:	48 98                	cltq   
  405522:	48 83 f8 00          	cmp    $0x0,%rax
  405526:	0f 84 0d 00 00 00    	je     405539 <_history_manager+0x299>
  40552c:	48 c7 45 c8 00 00 00 	movq   $0x0,-0x38(%rbp)
  405533:	00 
  405534:	e9 01 01 00 00       	jmp    40563a <_history_manager+0x39a>
  405539:	48 63 04 25 f0 20 41 	movslq 0x4120f0,%rax
  405540:	00 
  405541:	48 8b 04 c5 f0 00 41 	mov    0x4100f0(,%rax,8),%rax
  405548:	00 
  405549:	48 89 45 c8          	mov    %rax,-0x38(%rbp)
  40554d:	e9 e8 00 00 00       	jmp    40563a <_history_manager+0x39a>
  405552:	83 7d c4 05          	cmpl   $0x5,-0x3c(%rbp)
  405556:	0f 94 c0             	sete   %al
  405559:	24 01                	and    $0x1,%al
  40555b:	0f b6 c0             	movzbl %al,%eax
  40555e:	48 98                	cltq   
  405560:	48 83 f8 00          	cmp    $0x0,%rax
  405564:	0f 84 aa 00 00 00    	je     405614 <_history_manager+0x374>
  40556a:	48 b8 f0 00 41 00 00 	movabs $0x4100f0,%rax
  405571:	00 00 00 
  405574:	48 89 45 f0          	mov    %rax,-0x10(%rbp)
  405578:	48 83 7d f0 00       	cmpq   $0x0,-0x10(%rbp)
  40557d:	0f 95 c0             	setne  %al
  405580:	34 ff                	xor    $0xff,%al
  405582:	a8 01                	test   $0x1,%al
  405584:	0f 85 05 00 00 00    	jne    40558f <_history_manager+0x2ef>
  40558a:	e9 0d 00 00 00       	jmp    40559c <_history_manager+0x2fc>
  40558f:	48 c7 45 f8 00 00 00 	movq   $0x0,-0x8(%rbp)
  405596:	00 
  405597:	e9 6b 00 00 00       	jmp    405607 <_history_manager+0x367>
  40559c:	e9 00 00 00 00       	jmp    4055a1 <_history_manager+0x301>
  4055a1:	48 8b 4d f0          	mov    -0x10(%rbp),%rcx
  4055a5:	8b 81 04 20 00 00    	mov    0x2004(%rcx),%eax
  4055ab:	83 c0 ff             	add    $0xffffffff,%eax
  4055ae:	89 81 04 20 00 00    	mov    %eax,0x2004(%rcx)
  4055b4:	83 f8 00             	cmp    $0x0,%eax
  4055b7:	0f 8e 34 00 00 00    	jle    4055f1 <_history_manager+0x351>
  4055bd:	48 8b 45 f0          	mov    -0x10(%rbp),%rax
  4055c1:	48 8b 4d f0          	mov    -0x10(%rbp),%rcx
  4055c5:	48 63 89 04 20 00 00 	movslq 0x2004(%rcx),%rcx
  4055cc:	48 8b 3c c8          	mov    (%rax,%rcx,8),%rdi
  4055d0:	e8 6b ba ff ff       	call   401040 <free@plt>
  4055d5:	48 8b 45 f0          	mov    -0x10(%rbp),%rax
  4055d9:	48 8b 4d f0          	mov    -0x10(%rbp),%rcx
  4055dd:	48 63 89 04 20 00 00 	movslq 0x2004(%rcx),%rcx
  4055e4:	48 c7 04 c8 00 00 00 	movq   $0x0,(%rax,%rcx,8)
  4055eb:	00 
  4055ec:	e9 b0 ff ff ff       	jmp    4055a1 <_history_manager+0x301>
  4055f1:	48 8b 45 f0          	mov    -0x10(%rbp),%rax
  4055f5:	c7 80 00 20 00 00 00 	movl   $0x0,0x2000(%rax)
  4055fc:	00 00 00 
  4055ff:	48 c7 45 f8 00 00 00 	movq   $0x0,-0x8(%rbp)
  405606:	00 
  405607:	48 8b 45 f8          	mov    -0x8(%rbp),%rax
  40560b:	48 89 45 c8          	mov    %rax,-0x38(%rbp)
  40560f:	e9 26 00 00 00       	jmp    40563a <_history_manager+0x39a>
  405614:	e9 00 00 00 00       	jmp    405619 <_history_manager+0x379>
  405619:	e9 00 00 00 00       	jmp    40561e <_history_manager+0x37e>
  40561e:	e9 00 00 00 00       	jmp    405623 <_history_manager+0x383>
  405623:	e9 00 00 00 00       	jmp    405628 <_history_manager+0x388>
  405628:	e9 00 00 00 00       	jmp    40562d <_history_manager+0x38d>
  40562d:	e9 00 00 00 00       	jmp    405632 <_history_manager+0x392>
  405632:	48 c7 45 c8 00 00 00 	movq   $0x0,-0x38(%rbp)
  405639:	00 
  40563a:	48 8b 45 c8          	mov    -0x38(%rbp),%rax
  40563e:	48 83 c4 50          	add    $0x50,%rsp
  405642:	5d                   	pop    %rbp
  405643:	c3                   	ret    
  405644:	66 2e 0f 1f 84 00 00 	cs nopw 0x0(%rax,%rax,1)
  40564b:	00 00 00 
  40564e:	66 90                	xchg   %ax,%ax

0000000000405650 <_load_history>:
  405650:	55                   	push   %rbp
  405651:	48 89 e5             	mov    %rsp,%rbp
  405654:	48 83 ec 30          	sub    $0x30,%rsp
  405658:	48 89 7d f0          	mov    %rdi,-0x10(%rbp)
  40565c:	48 89 75 e8          	mov    %rsi,-0x18(%rbp)
  405660:	48 8b 7d f0          	mov    -0x10(%rbp),%rdi
  405664:	be 42 04 00 00       	mov    $0x442,%esi
  405669:	ba a4 01 00 00       	mov    $0x1a4,%edx
  40566e:	b0 00                	mov    $0x0,%al
  405670:	e8 db ba ff ff       	call   401150 <open@plt>
  405675:	89 45 e4             	mov    %eax,-0x1c(%rbp)
  405678:	83 7d e4 00          	cmpl   $0x0,-0x1c(%rbp)
  40567c:	0f 9c c0             	setl   %al
  40567f:	24 01                	and    $0x1,%al
  405681:	0f b6 c0             	movzbl %al,%eax
  405684:	48 98                	cltq   
  405686:	48 83 f8 00          	cmp    $0x0,%rax
  40568a:	0f 84 1b 00 00 00    	je     4056ab <_load_history+0x5b>
  405690:	48 bf 9e 82 40 00 00 	movabs $0x40829e,%rdi
  405697:	00 00 00 
  40569a:	e8 c1 ba ff ff       	call   401160 <perror@plt>
  40569f:	c7 45 fc ff ff ff ff 	movl   $0xffffffff,-0x4(%rbp)
  4056a6:	e9 0c 01 00 00       	jmp    4057b7 <_load_history+0x167>
  4056ab:	8b 7d e4             	mov    -0x1c(%rbp),%edi
  4056ae:	e8 bd 12 00 00       	call   406970 <gnl>
  4056b3:	48 89 45 d8          	mov    %rax,-0x28(%rbp)
  4056b7:	c7 45 d4 ff ff ff ff 	movl   $0xffffffff,-0x2c(%rbp)
  4056be:	31 c0                	xor    %eax,%eax
  4056c0:	48 83 7d d8 00       	cmpq   $0x0,-0x28(%rbp)
  4056c5:	88 45 d3             	mov    %al,-0x2d(%rbp)
  4056c8:	0f 84 14 00 00 00    	je     4056e2 <_load_history+0x92>
  4056ce:	8b 45 d4             	mov    -0x2c(%rbp),%eax
  4056d1:	83 c0 01             	add    $0x1,%eax
  4056d4:	89 45 d4             	mov    %eax,-0x2c(%rbp)
  4056d7:	3d 00 04 00 00       	cmp    $0x400,%eax
  4056dc:	0f 9c c0             	setl   %al
  4056df:	88 45 d3             	mov    %al,-0x2d(%rbp)
  4056e2:	8a 45 d3             	mov    -0x2d(%rbp),%al
  4056e5:	a8 01                	test   $0x1,%al
  4056e7:	0f 85 05 00 00 00    	jne    4056f2 <_load_history+0xa2>
  4056ed:	e9 83 00 00 00       	jmp    405775 <_load_history+0x125>
  4056f2:	48 8b 75 d8          	mov    -0x28(%rbp),%rsi
  4056f6:	bf 03 00 00 00       	mov    $0x3,%edi
  4056fb:	e8 a0 fb ff ff       	call   4052a0 <_history_manager>
  405700:	48 83 f8 00          	cmp    $0x0,%rax
  405704:	0f 95 c0             	setne  %al
  405707:	34 ff                	xor    $0xff,%al
  405709:	24 01                	and    $0x1,%al
  40570b:	0f b6 c0             	movzbl %al,%eax
  40570e:	48 98                	cltq   
  405710:	48 83 f8 00          	cmp    $0x0,%rax
  405714:	0f 84 2c 00 00 00    	je     405746 <_load_history+0xf6>
  40571a:	8b 7d e4             	mov    -0x1c(%rbp),%edi
  40571d:	e8 8e b9 ff ff       	call   4010b0 <close@plt>
  405722:	48 8b 7d d8          	mov    -0x28(%rbp),%rdi
  405726:	e8 15 b9 ff ff       	call   401040 <free@plt>
  40572b:	48 bf b3 82 40 00 00 	movabs $0x4082b3,%rdi
  405732:	00 00 00 
  405735:	e8 26 ba ff ff       	call   401160 <perror@plt>
  40573a:	c7 45 fc fe ff ff ff 	movl   $0xfffffffe,-0x4(%rbp)
  405741:	e9 71 00 00 00       	jmp    4057b7 <_load_history+0x167>
  405746:	48 8b 75 d8          	mov    -0x28(%rbp),%rsi
  40574a:	48 bf d2 82 40 00 00 	movabs $0x4082d2,%rdi
  405751:	00 00 00 
  405754:	b0 00                	mov    $0x0,%al
  405756:	e8 05 d1 ff ff       	call   402860 <ft_printf>
  40575b:	48 8b 7d d8          	mov    -0x28(%rbp),%rdi
  40575f:	e8 dc b8 ff ff       	call   401040 <free@plt>
  405764:	8b 7d e4             	mov    -0x1c(%rbp),%edi
  405767:	e8 04 12 00 00       	call   406970 <gnl>
  40576c:	48 89 45 d8          	mov    %rax,-0x28(%rbp)
  405770:	e9 49 ff ff ff       	jmp    4056be <_load_history+0x6e>
  405775:	e9 00 00 00 00       	jmp    40577a <_load_history+0x12a>
  40577a:	8b 45 d4             	mov    -0x2c(%rbp),%eax
  40577d:	83 c0 01             	add    $0x1,%eax
  405780:	89 45 d4             	mov    %eax,-0x2c(%rbp)
  405783:	3d 00 04 00 00       	cmp    $0x400,%eax
  405788:	0f 8d 15 00 00 00    	jge    4057a3 <_load_history+0x153>
  40578e:	48 8b 45 e8          	mov    -0x18(%rbp),%rax
  405792:	48 63 4d d4          	movslq -0x2c(%rbp),%rcx
  405796:	48 c7 04 c8 00 00 00 	movq   $0x0,(%rax,%rcx,8)
  40579d:	00 
  40579e:	e9 d7 ff ff ff       	jmp    40577a <_load_history+0x12a>
  4057a3:	8b 4d e4             	mov    -0x1c(%rbp),%ecx
  4057a6:	48 8b 45 e8          	mov    -0x18(%rbp),%rax
  4057aa:	89 88 08 20 00 00    	mov    %ecx,0x2008(%rax)
  4057b0:	c7 45 fc 00 00 00 00 	movl   $0x0,-0x4(%rbp)
  4057b7:	8b 45 fc             	mov    -0x4(%rbp),%eax
  4057ba:	48 83 c4 30          	add    $0x30,%rsp
  4057be:	5d                   	pop    %rbp
  4057bf:	c3                   	ret    

00000000004057c0 <_sigint_handler>:
  4057c0:	55                   	push   %rbp
  4057c1:	48 89 e5             	mov    %rsp,%rbp
  4057c4:	48 83 ec 20          	sub    $0x20,%rsp
  4057c8:	89 7d fc             	mov    %edi,-0x4(%rbp)
  4057cb:	48 89 75 f0          	mov    %rsi,-0x10(%rbp)
  4057cf:	48 89 55 e8          	mov    %rdx,-0x18(%rbp)
  4057d3:	8b 45 fc             	mov    -0x4(%rbp),%eax
  4057d6:	89 04 25 00 61 41 00 	mov    %eax,0x416100
  4057dd:	e8 be e6 ff ff       	call   403ea0 <reset_cmd>
  4057e2:	e8 a9 dd ff ff       	call   403590 <get_last_child>
  4057e7:	89 c7                	mov    %eax,%edi
  4057e9:	be 02 00 00 00       	mov    $0x2,%esi
  4057ee:	e8 0d b9 ff ff       	call   401100 <kill@plt>
  4057f3:	48 bf e8 82 40 00 00 	movabs $0x4082e8,%rdi
  4057fa:	00 00 00 
  4057fd:	b0 00                	mov    $0x0,%al
  4057ff:	e8 7c b8 ff ff       	call   401080 <printf@plt>
  405804:	48 83 c4 20          	add    $0x20,%rsp
  405808:	5d                   	pop    %rbp
  405809:	c3                   	ret    
  40580a:	66 0f 1f 44 00 00    	nopw   0x0(%rax,%rax,1)

0000000000405810 <_sigquit_handler>:
  405810:	55                   	push   %rbp
  405811:	48 89 e5             	mov    %rsp,%rbp
  405814:	48 83 ec 20          	sub    $0x20,%rsp
  405818:	89 7d fc             	mov    %edi,-0x4(%rbp)
  40581b:	48 89 75 f0          	mov    %rsi,-0x10(%rbp)
  40581f:	48 89 55 e8          	mov    %rdx,-0x18(%rbp)
  405823:	8b 45 fc             	mov    -0x4(%rbp),%eax
  405826:	89 04 25 00 61 41 00 	mov    %eax,0x416100
  40582d:	e8 6e e6 ff ff       	call   403ea0 <reset_cmd>
  405832:	e8 59 dd ff ff       	call   403590 <get_last_child>
  405837:	89 c7                	mov    %eax,%edi
  405839:	be 03 00 00 00       	mov    $0x3,%esi
  40583e:	e8 bd b8 ff ff       	call   401100 <kill@plt>
  405843:	48 bf fa 82 40 00 00 	movabs $0x4082fa,%rdi
  40584a:	00 00 00 
  40584d:	b0 00                	mov    $0x0,%al
  40584f:	e8 2c b8 ff ff       	call   401080 <printf@plt>
  405854:	8b 7d fc             	mov    -0x4(%rbp),%edi
  405857:	48 be 0d 83 40 00 00 	movabs $0x40830d,%rsi
  40585e:	00 00 00 
  405861:	e8 aa c5 ff ff       	call   401e10 <exit_program>
  405866:	48 83 c4 20          	add    $0x20,%rsp
  40586a:	5d                   	pop    %rbp
  40586b:	c3                   	ret    
  40586c:	0f 1f 40 00          	nopl   0x0(%rax)

0000000000405870 <init_signal>:
  405870:	55                   	push   %rbp
  405871:	48 89 e5             	mov    %rsp,%rbp
  405874:	48 81 ec 40 01 00 00 	sub    $0x140,%rsp
  40587b:	48 b8 c0 57 40 00 00 	movabs $0x4057c0,%rax
  405882:	00 00 00 
  405885:	48 89 85 68 ff ff ff 	mov    %rax,-0x98(%rbp)
  40588c:	c7 45 f0 04 00 00 00 	movl   $0x4,-0x10(%rbp)
  405893:	48 8d bd 68 ff ff ff 	lea    -0x98(%rbp),%rdi
  40589a:	48 83 c7 08          	add    $0x8,%rdi
  40589e:	e8 3d b8 ff ff       	call   4010e0 <sigemptyset@plt>
  4058a3:	48 b8 10 58 40 00 00 	movabs $0x405810,%rax
  4058aa:	00 00 00 
  4058ad:	48 89 85 d0 fe ff ff 	mov    %rax,-0x130(%rbp)
  4058b4:	c7 85 58 ff ff ff 04 	movl   $0x4,-0xa8(%rbp)
  4058bb:	00 00 00 
  4058be:	48 8d bd d0 fe ff ff 	lea    -0x130(%rbp),%rdi
  4058c5:	48 83 c7 08          	add    $0x8,%rdi
  4058c9:	e8 12 b8 ff ff       	call   4010e0 <sigemptyset@plt>
  4058ce:	bf 02 00 00 00       	mov    $0x2,%edi
  4058d3:	48 8d b5 68 ff ff ff 	lea    -0x98(%rbp),%rsi
  4058da:	31 c0                	xor    %eax,%eax
  4058dc:	89 c2                	mov    %eax,%edx
  4058de:	e8 6d b7 ff ff       	call   401050 <sigaction@plt>
  4058e3:	89 c1                	mov    %eax,%ecx
  4058e5:	b0 01                	mov    $0x1,%al
  4058e7:	83 f9 ff             	cmp    $0xffffffff,%ecx
  4058ea:	88 85 cf fe ff ff    	mov    %al,-0x131(%rbp)
  4058f0:	0f 84 21 00 00 00    	je     405917 <init_signal+0xa7>
  4058f6:	bf 03 00 00 00       	mov    $0x3,%edi
  4058fb:	48 8d b5 d0 fe ff ff 	lea    -0x130(%rbp),%rsi
  405902:	31 c0                	xor    %eax,%eax
  405904:	89 c2                	mov    %eax,%edx
  405906:	e8 45 b7 ff ff       	call   401050 <sigaction@plt>
  40590b:	83 f8 ff             	cmp    $0xffffffff,%eax
  40590e:	0f 94 c0             	sete   %al
  405911:	88 85 cf fe ff ff    	mov    %al,-0x131(%rbp)
  405917:	8a 85 cf fe ff ff    	mov    -0x131(%rbp),%al
  40591d:	24 01                	and    $0x1,%al
  40591f:	0f b6 c0             	movzbl %al,%eax
  405922:	48 81 c4 40 01 00 00 	add    $0x140,%rsp
  405929:	5d                   	pop    %rbp
  40592a:	c3                   	ret    
  40592b:	0f 1f 44 00 00       	nopl   0x0(%rax,%rax,1)

0000000000405930 <ft_strncmp>:
  405930:	55                   	push   %rbp
  405931:	48 89 e5             	mov    %rsp,%rbp
  405934:	48 89 7d f0          	mov    %rdi,-0x10(%rbp)
  405938:	48 89 75 e8          	mov    %rsi,-0x18(%rbp)
  40593c:	48 89 55 e0          	mov    %rdx,-0x20(%rbp)
  405940:	b0 01                	mov    $0x1,%al
  405942:	48 83 7d f0 00       	cmpq   $0x0,-0x10(%rbp)
  405947:	88 45 d7             	mov    %al,-0x29(%rbp)
  40594a:	0f 84 0d 00 00 00    	je     40595d <ft_strncmp+0x2d>
  405950:	48 83 7d e8 00       	cmpq   $0x0,-0x18(%rbp)
  405955:	0f 95 c0             	setne  %al
  405958:	34 ff                	xor    $0xff,%al
  40595a:	88 45 d7             	mov    %al,-0x29(%rbp)
  40595d:	8a 45 d7             	mov    -0x29(%rbp),%al
  405960:	24 01                	and    $0x1,%al
  405962:	0f b6 c0             	movzbl %al,%eax
  405965:	48 98                	cltq   
  405967:	48 83 f8 00          	cmp    $0x0,%rax
  40596b:	0f 84 0c 00 00 00    	je     40597d <ft_strncmp+0x4d>
  405971:	c7 45 fc 00 00 00 00 	movl   $0x0,-0x4(%rbp)
  405978:	e9 c7 00 00 00       	jmp    405a44 <ft_strncmp+0x114>
  40597d:	48 c7 45 d8 00 00 00 	movq   $0x0,-0x28(%rbp)
  405984:	00 
  405985:	48 8b 4d d8          	mov    -0x28(%rbp),%rcx
  405989:	31 c0                	xor    %eax,%eax
  40598b:	48 3b 4d e0          	cmp    -0x20(%rbp),%rcx
  40598f:	88 45 d6             	mov    %al,-0x2a(%rbp)
  405992:	0f 83 54 00 00 00    	jae    4059ec <ft_strncmp+0xbc>
  405998:	48 8b 45 f0          	mov    -0x10(%rbp),%rax
  40599c:	48 8b 4d d8          	mov    -0x28(%rbp),%rcx
  4059a0:	0f be 0c 08          	movsbl (%rax,%rcx,1),%ecx
  4059a4:	31 c0                	xor    %eax,%eax
  4059a6:	83 f9 00             	cmp    $0x0,%ecx
  4059a9:	88 45 d6             	mov    %al,-0x2a(%rbp)
  4059ac:	0f 84 3a 00 00 00    	je     4059ec <ft_strncmp+0xbc>
  4059b2:	48 8b 45 e8          	mov    -0x18(%rbp),%rax
  4059b6:	48 8b 4d d8          	mov    -0x28(%rbp),%rcx
  4059ba:	0f be 0c 08          	movsbl (%rax,%rcx,1),%ecx
  4059be:	31 c0                	xor    %eax,%eax
  4059c0:	83 f9 00             	cmp    $0x0,%ecx
  4059c3:	88 45 d6             	mov    %al,-0x2a(%rbp)
  4059c6:	0f 84 20 00 00 00    	je     4059ec <ft_strncmp+0xbc>
  4059cc:	48 8b 45 f0          	mov    -0x10(%rbp),%rax
  4059d0:	48 8b 4d d8          	mov    -0x28(%rbp),%rcx
  4059d4:	0f be 04 08          	movsbl (%rax,%rcx,1),%eax
  4059d8:	48 8b 4d e8          	mov    -0x18(%rbp),%rcx
  4059dc:	48 8b 55 d8          	mov    -0x28(%rbp),%rdx
  4059e0:	0f be 0c 11          	movsbl (%rcx,%rdx,1),%ecx
  4059e4:	39 c8                	cmp    %ecx,%eax
  4059e6:	0f 94 c0             	sete   %al
  4059e9:	88 45 d6             	mov    %al,-0x2a(%rbp)
  4059ec:	8a 45 d6             	mov    -0x2a(%rbp),%al
  4059ef:	a8 01                	test   $0x1,%al
  4059f1:	0f 85 05 00 00 00    	jne    4059fc <ft_strncmp+0xcc>
  4059f7:	e9 11 00 00 00       	jmp    405a0d <ft_strncmp+0xdd>
  4059fc:	48 8b 45 d8          	mov    -0x28(%rbp),%rax
  405a00:	48 83 c0 01          	add    $0x1,%rax
  405a04:	48 89 45 d8          	mov    %rax,-0x28(%rbp)
  405a08:	e9 78 ff ff ff       	jmp    405985 <ft_strncmp+0x55>
  405a0d:	48 8b 45 d8          	mov    -0x28(%rbp),%rax
  405a11:	48 3b 45 e0          	cmp    -0x20(%rbp),%rax
  405a15:	0f 85 0c 00 00 00    	jne    405a27 <ft_strncmp+0xf7>
  405a1b:	c7 45 fc 00 00 00 00 	movl   $0x0,-0x4(%rbp)
  405a22:	e9 1d 00 00 00       	jmp    405a44 <ft_strncmp+0x114>
  405a27:	48 8b 45 f0          	mov    -0x10(%rbp),%rax
  405a2b:	48 8b 4d d8          	mov    -0x28(%rbp),%rcx
  405a2f:	0f b6 04 08          	movzbl (%rax,%rcx,1),%eax
  405a33:	48 8b 4d e8          	mov    -0x18(%rbp),%rcx
  405a37:	48 8b 55 d8          	mov    -0x28(%rbp),%rdx
  405a3b:	0f b6 0c 11          	movzbl (%rcx,%rdx,1),%ecx
  405a3f:	29 c8                	sub    %ecx,%eax
  405a41:	89 45 fc             	mov    %eax,-0x4(%rbp)
  405a44:	8b 45 fc             	mov    -0x4(%rbp),%eax
  405a47:	5d                   	pop    %rbp
  405a48:	c3                   	ret    
  405a49:	0f 1f 80 00 00 00 00 	nopl   0x0(%rax)

0000000000405a50 <ft_strlen>:
  405a50:	55                   	push   %rbp
  405a51:	48 89 e5             	mov    %rsp,%rbp
  405a54:	48 89 7d f0          	mov    %rdi,-0x10(%rbp)
  405a58:	48 83 7d f0 00       	cmpq   $0x0,-0x10(%rbp)
  405a5d:	0f 95 c0             	setne  %al
  405a60:	34 ff                	xor    $0xff,%al
  405a62:	24 01                	and    $0x1,%al
  405a64:	0f b6 c0             	movzbl %al,%eax
  405a67:	48 98                	cltq   
  405a69:	48 83 f8 00          	cmp    $0x0,%rax
  405a6d:	0f 84 0c 00 00 00    	je     405a7f <ft_strlen+0x2f>
  405a73:	c7 45 fc 00 00 00 00 	movl   $0x0,-0x4(%rbp)
  405a7a:	e9 2d 00 00 00       	jmp    405aac <ft_strlen+0x5c>
  405a7f:	c7 45 ec 00 00 00 00 	movl   $0x0,-0x14(%rbp)
  405a86:	48 8b 45 f0          	mov    -0x10(%rbp),%rax
  405a8a:	48 63 4d ec          	movslq -0x14(%rbp),%rcx
  405a8e:	80 3c 08 00          	cmpb   $0x0,(%rax,%rcx,1)
  405a92:	0f 84 0e 00 00 00    	je     405aa6 <ft_strlen+0x56>
  405a98:	8b 45 ec             	mov    -0x14(%rbp),%eax
  405a9b:	83 c0 01             	add    $0x1,%eax
  405a9e:	89 45 ec             	mov    %eax,-0x14(%rbp)
  405aa1:	e9 e0 ff ff ff       	jmp    405a86 <ft_strlen+0x36>
  405aa6:	8b 45 ec             	mov    -0x14(%rbp),%eax
  405aa9:	89 45 fc             	mov    %eax,-0x4(%rbp)
  405aac:	8b 45 fc             	mov    -0x4(%rbp),%eax
  405aaf:	5d                   	pop    %rbp
  405ab0:	c3                   	ret    
  405ab1:	66 2e 0f 1f 84 00 00 	cs nopw 0x0(%rax,%rax,1)
  405ab8:	00 00 00 
  405abb:	0f 1f 44 00 00       	nopl   0x0(%rax,%rax,1)

0000000000405ac0 <_neutral>:
  405ac0:	55                   	push   %rbp
  405ac1:	48 89 e5             	mov    %rsp,%rbp
  405ac4:	48 89 7d f8          	mov    %rdi,-0x8(%rbp)
  405ac8:	89 75 f4             	mov    %esi,-0xc(%rbp)
  405acb:	8b 45 f4             	mov    -0xc(%rbp),%eax
  405ace:	c1 e8 03             	shr    $0x3,%eax
  405ad1:	89 45 dc             	mov    %eax,-0x24(%rbp)
  405ad4:	48 8b 45 f8          	mov    -0x8(%rbp),%rax
  405ad8:	48 89 45 e8          	mov    %rax,-0x18(%rbp)
  405adc:	c7 45 d8 00 00 00 00 	movl   $0x0,-0x28(%rbp)
  405ae3:	8b 45 d8             	mov    -0x28(%rbp),%eax
  405ae6:	89 c1                	mov    %eax,%ecx
  405ae8:	83 c1 01             	add    $0x1,%ecx
  405aeb:	89 4d d8             	mov    %ecx,-0x28(%rbp)
  405aee:	3b 45 dc             	cmp    -0x24(%rbp),%eax
  405af1:	0f 84 1b 00 00 00    	je     405b12 <_neutral+0x52>
  405af7:	48 8b 45 e8          	mov    -0x18(%rbp),%rax
  405afb:	48 89 c1             	mov    %rax,%rcx
  405afe:	48 83 c1 08          	add    $0x8,%rcx
  405b02:	48 89 4d e8          	mov    %rcx,-0x18(%rbp)
  405b06:	48 c7 00 00 00 00 00 	movq   $0x0,(%rax)
  405b0d:	e9 d1 ff ff ff       	jmp    405ae3 <_neutral+0x23>
  405b12:	8b 45 d8             	mov    -0x28(%rbp),%eax
  405b15:	c1 e0 03             	shl    $0x3,%eax
  405b18:	89 45 d8             	mov    %eax,-0x28(%rbp)
  405b1b:	48 8b 45 f8          	mov    -0x8(%rbp),%rax
  405b1f:	8b 4d d8             	mov    -0x28(%rbp),%ecx
  405b22:	48 01 c8             	add    %rcx,%rax
  405b25:	48 89 45 e0          	mov    %rax,-0x20(%rbp)
  405b29:	8b 45 f4             	mov    -0xc(%rbp),%eax
  405b2c:	8b 4d d8             	mov    -0x28(%rbp),%ecx
  405b2f:	89 ca                	mov    %ecx,%edx
  405b31:	83 c2 01             	add    $0x1,%edx
  405b34:	89 55 d8             	mov    %edx,-0x28(%rbp)
  405b37:	29 c8                	sub    %ecx,%eax
  405b39:	c1 e8 1f             	shr    $0x1f,%eax
  405b3c:	83 f8 00             	cmp    $0x0,%eax
  405b3f:	0f 95 c0             	setne  %al
  405b42:	34 ff                	xor    $0xff,%al
  405b44:	a8 01                	test   $0x1,%al
  405b46:	0f 85 05 00 00 00    	jne    405b51 <_neutral+0x91>
  405b4c:	e9 17 00 00 00       	jmp    405b68 <_neutral+0xa8>
  405b51:	48 8b 45 e0          	mov    -0x20(%rbp),%rax
  405b55:	48 89 c1             	mov    %rax,%rcx
  405b58:	48 83 c1 01          	add    $0x1,%rcx
  405b5c:	48 89 4d e0          	mov    %rcx,-0x20(%rbp)
  405b60:	c6 00 00             	movb   $0x0,(%rax)
  405b63:	e9 c1 ff ff ff       	jmp    405b29 <_neutral+0x69>
  405b68:	5d                   	pop    %rbp
  405b69:	c3                   	ret    
  405b6a:	66 0f 1f 44 00 00    	nopw   0x0(%rax,%rax,1)

0000000000405b70 <memdup>:
  405b70:	55                   	push   %rbp
  405b71:	48 89 e5             	mov    %rsp,%rbp
  405b74:	48 83 ec 30          	sub    $0x30,%rsp
  405b78:	48 89 7d f0          	mov    %rdi,-0x10(%rbp)
  405b7c:	48 89 75 e8          	mov    %rsi,-0x18(%rbp)
  405b80:	48 8b 7d e8          	mov    -0x18(%rbp),%rdi
  405b84:	e8 77 da ff ff       	call   403600 <mm_alloc>
  405b89:	48 89 45 e0          	mov    %rax,-0x20(%rbp)
  405b8d:	48 83 7d e0 00       	cmpq   $0x0,-0x20(%rbp)
  405b92:	0f 95 c0             	setne  %al
  405b95:	34 ff                	xor    $0xff,%al
  405b97:	24 01                	and    $0x1,%al
  405b99:	0f b6 c0             	movzbl %al,%eax
  405b9c:	48 98                	cltq   
  405b9e:	48 83 f8 00          	cmp    $0x0,%rax
  405ba2:	0f 84 0d 00 00 00    	je     405bb5 <memdup+0x45>
  405ba8:	48 c7 45 f8 00 00 00 	movq   $0x0,-0x8(%rbp)
  405baf:	00 
  405bb0:	e9 41 00 00 00       	jmp    405bf6 <memdup+0x86>
  405bb5:	48 c7 45 d8 ff ff ff 	movq   $0xffffffffffffffff,-0x28(%rbp)
  405bbc:	ff 
  405bbd:	48 8b 45 d8          	mov    -0x28(%rbp),%rax
  405bc1:	48 83 c0 01          	add    $0x1,%rax
  405bc5:	48 89 45 d8          	mov    %rax,-0x28(%rbp)
  405bc9:	48 3b 45 e8          	cmp    -0x18(%rbp),%rax
  405bcd:	0f 83 1b 00 00 00    	jae    405bee <memdup+0x7e>
  405bd3:	48 8b 45 f0          	mov    -0x10(%rbp),%rax
  405bd7:	48 8b 4d d8          	mov    -0x28(%rbp),%rcx
  405bdb:	8a 14 08             	mov    (%rax,%rcx,1),%dl
  405bde:	48 8b 45 e0          	mov    -0x20(%rbp),%rax
  405be2:	48 8b 4d d8          	mov    -0x28(%rbp),%rcx
  405be6:	88 14 08             	mov    %dl,(%rax,%rcx,1)
  405be9:	e9 cf ff ff ff       	jmp    405bbd <memdup+0x4d>
  405bee:	48 8b 45 e0          	mov    -0x20(%rbp),%rax
  405bf2:	48 89 45 f8          	mov    %rax,-0x8(%rbp)
  405bf6:	48 8b 45 f8          	mov    -0x8(%rbp),%rax
  405bfa:	48 83 c4 30          	add    $0x30,%rsp
  405bfe:	5d                   	pop    %rbp
  405bff:	c3                   	ret    

0000000000405c00 <ft_memcpy>:
  405c00:	55                   	push   %rbp
  405c01:	48 89 e5             	mov    %rsp,%rbp
  405c04:	48 89 7d f8          	mov    %rdi,-0x8(%rbp)
  405c08:	48 89 75 f0          	mov    %rsi,-0x10(%rbp)
  405c0c:	48 89 55 e8          	mov    %rdx,-0x18(%rbp)
  405c10:	b0 01                	mov    $0x1,%al
  405c12:	48 83 7d f8 00       	cmpq   $0x0,-0x8(%rbp)
  405c17:	88 45 df             	mov    %al,-0x21(%rbp)
  405c1a:	0f 84 0d 00 00 00    	je     405c2d <ft_memcpy+0x2d>
  405c20:	48 83 7d f0 00       	cmpq   $0x0,-0x10(%rbp)
  405c25:	0f 95 c0             	setne  %al
  405c28:	34 ff                	xor    $0xff,%al
  405c2a:	88 45 df             	mov    %al,-0x21(%rbp)
  405c2d:	8a 45 df             	mov    -0x21(%rbp),%al
  405c30:	24 01                	and    $0x1,%al
  405c32:	0f b6 c0             	movzbl %al,%eax
  405c35:	48 98                	cltq   
  405c37:	48 83 f8 00          	cmp    $0x0,%rax
  405c3b:	0f 84 05 00 00 00    	je     405c46 <ft_memcpy+0x46>
  405c41:	e9 3e 00 00 00       	jmp    405c84 <ft_memcpy+0x84>
  405c46:	48 c7 45 e0 ff ff ff 	movq   $0xffffffffffffffff,-0x20(%rbp)
  405c4d:	ff 
  405c4e:	48 8b 45 e0          	mov    -0x20(%rbp),%rax
  405c52:	48 83 c0 01          	add    $0x1,%rax
  405c56:	48 89 45 e0          	mov    %rax,-0x20(%rbp)
  405c5a:	48 3b 45 e8          	cmp    -0x18(%rbp),%rax
  405c5e:	0f 83 1b 00 00 00    	jae    405c7f <ft_memcpy+0x7f>
  405c64:	48 8b 45 f0          	mov    -0x10(%rbp),%rax
  405c68:	48 8b 4d e0          	mov    -0x20(%rbp),%rcx
  405c6c:	8a 14 08             	mov    (%rax,%rcx,1),%dl
  405c6f:	48 8b 45 f8          	mov    -0x8(%rbp),%rax
  405c73:	48 8b 4d e0          	mov    -0x20(%rbp),%rcx
  405c77:	88 14 08             	mov    %dl,(%rax,%rcx,1)
  405c7a:	e9 cf ff ff ff       	jmp    405c4e <ft_memcpy+0x4e>
  405c7f:	e9 00 00 00 00       	jmp    405c84 <ft_memcpy+0x84>
  405c84:	5d                   	pop    %rbp
  405c85:	c3                   	ret    
  405c86:	66 2e 0f 1f 84 00 00 	cs nopw 0x0(%rax,%rax,1)
  405c8d:	00 00 00 

0000000000405c90 <ft_split>:
  405c90:	55                   	push   %rbp
  405c91:	48 89 e5             	mov    %rsp,%rbp
  405c94:	48 83 ec 30          	sub    $0x30,%rsp
  405c98:	40 88 f0             	mov    %sil,%al
  405c9b:	48 89 7d f0          	mov    %rdi,-0x10(%rbp)
  405c9f:	88 45 ef             	mov    %al,-0x11(%rbp)
  405ca2:	48 8b 7d f0          	mov    -0x10(%rbp),%rdi
  405ca6:	0f be 75 ef          	movsbl -0x11(%rbp),%esi
  405caa:	e8 71 00 00 00       	call   405d20 <get_buffer>
  405caf:	48 89 45 e0          	mov    %rax,-0x20(%rbp)
  405cb3:	48 8b 7d e0          	mov    -0x20(%rbp),%rdi
  405cb7:	48 83 c7 01          	add    $0x1,%rdi
  405cbb:	48 c1 e7 03          	shl    $0x3,%rdi
  405cbf:	e8 3c d9 ff ff       	call   403600 <mm_alloc>
  405cc4:	48 89 45 d8          	mov    %rax,-0x28(%rbp)
  405cc8:	48 83 7d d8 00       	cmpq   $0x0,-0x28(%rbp)
  405ccd:	0f 85 0d 00 00 00    	jne    405ce0 <ft_split+0x50>
  405cd3:	48 c7 45 f8 00 00 00 	movq   $0x0,-0x8(%rbp)
  405cda:	00 
  405cdb:	e9 31 00 00 00       	jmp    405d11 <ft_split+0x81>
  405ce0:	48 8b 7d d8          	mov    -0x28(%rbp),%rdi
  405ce4:	48 8b 75 f0          	mov    -0x10(%rbp),%rsi
  405ce8:	0f be 55 ef          	movsbl -0x11(%rbp),%edx
  405cec:	e8 cf 00 00 00       	call   405dc0 <alloc_tab>
  405cf1:	48 83 7d d8 00       	cmpq   $0x0,-0x28(%rbp)
  405cf6:	0f 85 0d 00 00 00    	jne    405d09 <ft_split+0x79>
  405cfc:	48 c7 45 f8 00 00 00 	movq   $0x0,-0x8(%rbp)
  405d03:	00 
  405d04:	e9 08 00 00 00       	jmp    405d11 <ft_split+0x81>
  405d09:	48 8b 45 d8          	mov    -0x28(%rbp),%rax
  405d0d:	48 89 45 f8          	mov    %rax,-0x8(%rbp)
  405d11:	48 8b 45 f8          	mov    -0x8(%rbp),%rax
  405d15:	48 83 c4 30          	add    $0x30,%rsp
  405d19:	5d                   	pop    %rbp
  405d1a:	c3                   	ret    
  405d1b:	0f 1f 44 00 00       	nopl   0x0(%rax,%rax,1)

0000000000405d20 <get_buffer>:
  405d20:	55                   	push   %rbp
  405d21:	48 89 e5             	mov    %rsp,%rbp
  405d24:	40 88 f0             	mov    %sil,%al
  405d27:	48 89 7d f8          	mov    %rdi,-0x8(%rbp)
  405d2b:	88 45 f7             	mov    %al,-0x9(%rbp)
  405d2e:	48 c7 45 e0 00 00 00 	movq   $0x0,-0x20(%rbp)
  405d35:	00 
  405d36:	48 c7 45 e8 00 00 00 	movq   $0x0,-0x18(%rbp)
  405d3d:	00 
  405d3e:	48 8b 45 f8          	mov    -0x8(%rbp),%rax
  405d42:	48 8b 4d e0          	mov    -0x20(%rbp),%rcx
  405d46:	80 3c 08 00          	cmpb   $0x0,(%rax,%rcx,1)
  405d4a:	0f 84 64 00 00 00    	je     405db4 <get_buffer+0x94>
  405d50:	48 8b 45 f8          	mov    -0x8(%rbp),%rax
  405d54:	48 8b 4d e0          	mov    -0x20(%rbp),%rcx
  405d58:	0f be 04 08          	movsbl (%rax,%rcx,1),%eax
  405d5c:	0f be 4d f7          	movsbl -0x9(%rbp),%ecx
  405d60:	39 c8                	cmp    %ecx,%eax
  405d62:	0f 84 3b 00 00 00    	je     405da3 <get_buffer+0x83>
  405d68:	48 8b 45 f8          	mov    -0x8(%rbp),%rax
  405d6c:	48 8b 4d e0          	mov    -0x20(%rbp),%rcx
  405d70:	0f be 44 08 01       	movsbl 0x1(%rax,%rcx,1),%eax
  405d75:	0f be 4d f7          	movsbl -0x9(%rbp),%ecx
  405d79:	39 c8                	cmp    %ecx,%eax
  405d7b:	0f 84 16 00 00 00    	je     405d97 <get_buffer+0x77>
  405d81:	48 8b 45 f8          	mov    -0x8(%rbp),%rax
  405d85:	48 8b 4d e0          	mov    -0x20(%rbp),%rcx
  405d89:	0f be 44 08 01       	movsbl 0x1(%rax,%rcx,1),%eax
  405d8e:	83 f8 00             	cmp    $0x0,%eax
  405d91:	0f 85 0c 00 00 00    	jne    405da3 <get_buffer+0x83>
  405d97:	48 8b 45 e8          	mov    -0x18(%rbp),%rax
  405d9b:	48 83 c0 01          	add    $0x1,%rax
  405d9f:	48 89 45 e8          	mov    %rax,-0x18(%rbp)
  405da3:	48 8b 45 e0          	mov    -0x20(%rbp),%rax
  405da7:	48 83 c0 01          	add    $0x1,%rax
  405dab:	48 89 45 e0          	mov    %rax,-0x20(%rbp)
  405daf:	e9 8a ff ff ff       	jmp    405d3e <get_buffer+0x1e>
  405db4:	48 8b 45 e8          	mov    -0x18(%rbp),%rax
  405db8:	5d                   	pop    %rbp
  405db9:	c3                   	ret    
  405dba:	66 0f 1f 44 00 00    	nopw   0x0(%rax,%rax,1)

0000000000405dc0 <alloc_tab>:
  405dc0:	55                   	push   %rbp
  405dc1:	48 89 e5             	mov    %rsp,%rbp
  405dc4:	48 83 ec 30          	sub    $0x30,%rsp
  405dc8:	88 d0                	mov    %dl,%al
  405dca:	48 89 7d f8          	mov    %rdi,-0x8(%rbp)
  405dce:	48 89 75 f0          	mov    %rsi,-0x10(%rbp)
  405dd2:	88 45 ef             	mov    %al,-0x11(%rbp)
  405dd5:	48 c7 45 d8 00 00 00 	movq   $0x0,-0x28(%rbp)
  405ddc:	00 
  405ddd:	c7 45 d4 00 00 00 00 	movl   $0x0,-0x2c(%rbp)
  405de4:	48 8b 45 f0          	mov    -0x10(%rbp),%rax
  405de8:	48 8b 4d d8          	mov    -0x28(%rbp),%rcx
  405dec:	80 3c 08 00          	cmpb   $0x0,(%rax,%rcx,1)
  405df0:	0f 84 fa 00 00 00    	je     405ef0 <alloc_tab+0x130>
  405df6:	48 c7 45 e0 00 00 00 	movq   $0x0,-0x20(%rbp)
  405dfd:	00 
  405dfe:	48 8b 45 f0          	mov    -0x10(%rbp),%rax
  405e02:	48 8b 4d d8          	mov    -0x28(%rbp),%rcx
  405e06:	48 03 4d e0          	add    -0x20(%rbp),%rcx
  405e0a:	0f be 0c 08          	movsbl (%rax,%rcx,1),%ecx
  405e0e:	31 c0                	xor    %eax,%eax
  405e10:	83 f9 00             	cmp    $0x0,%ecx
  405e13:	88 45 d3             	mov    %al,-0x2d(%rbp)
  405e16:	0f 84 1c 00 00 00    	je     405e38 <alloc_tab+0x78>
  405e1c:	48 8b 45 f0          	mov    -0x10(%rbp),%rax
  405e20:	48 8b 4d d8          	mov    -0x28(%rbp),%rcx
  405e24:	48 03 4d e0          	add    -0x20(%rbp),%rcx
  405e28:	0f be 04 08          	movsbl (%rax,%rcx,1),%eax
  405e2c:	0f be 4d ef          	movsbl -0x11(%rbp),%ecx
  405e30:	39 c8                	cmp    %ecx,%eax
  405e32:	0f 95 c0             	setne  %al
  405e35:	88 45 d3             	mov    %al,-0x2d(%rbp)
  405e38:	8a 45 d3             	mov    -0x2d(%rbp),%al
  405e3b:	a8 01                	test   $0x1,%al
  405e3d:	0f 85 05 00 00 00    	jne    405e48 <alloc_tab+0x88>
  405e43:	e9 11 00 00 00       	jmp    405e59 <alloc_tab+0x99>
  405e48:	48 8b 45 e0          	mov    -0x20(%rbp),%rax
  405e4c:	48 83 c0 01          	add    $0x1,%rax
  405e50:	48 89 45 e0          	mov    %rax,-0x20(%rbp)
  405e54:	e9 a5 ff ff ff       	jmp    405dfe <alloc_tab+0x3e>
  405e59:	48 83 7d e0 00       	cmpq   $0x0,-0x20(%rbp)
  405e5e:	0f 86 7b 00 00 00    	jbe    405edf <alloc_tab+0x11f>
  405e64:	48 8b 7d e0          	mov    -0x20(%rbp),%rdi
  405e68:	48 83 c7 01          	add    $0x1,%rdi
  405e6c:	48 c1 e7 00          	shl    $0x0,%rdi
  405e70:	e8 8b d7 ff ff       	call   403600 <mm_alloc>
  405e75:	48 89 c2             	mov    %rax,%rdx
  405e78:	48 8b 45 f8          	mov    -0x8(%rbp),%rax
  405e7c:	48 63 4d d4          	movslq -0x2c(%rbp),%rcx
  405e80:	48 89 14 c8          	mov    %rdx,(%rax,%rcx,8)
  405e84:	48 8b 45 f8          	mov    -0x8(%rbp),%rax
  405e88:	48 63 4d d4          	movslq -0x2c(%rbp),%rcx
  405e8c:	48 83 3c c8 00       	cmpq   $0x0,(%rax,%rcx,8)
  405e91:	0f 85 11 00 00 00    	jne    405ea8 <alloc_tab+0xe8>
  405e97:	48 8b 7d f8          	mov    -0x8(%rbp),%rdi
  405e9b:	8b 75 d4             	mov    -0x2c(%rbp),%esi
  405e9e:	e8 6d 00 00 00       	call   405f10 <free_tab>
  405ea3:	e9 58 00 00 00       	jmp    405f00 <alloc_tab+0x140>
  405ea8:	48 8b 45 f8          	mov    -0x8(%rbp),%rax
  405eac:	48 63 4d d4          	movslq -0x2c(%rbp),%rcx
  405eb0:	48 8b 3c c8          	mov    (%rax,%rcx,8),%rdi
  405eb4:	48 8b 75 f0          	mov    -0x10(%rbp),%rsi
  405eb8:	48 03 75 d8          	add    -0x28(%rbp),%rsi
  405ebc:	0f be 55 ef          	movsbl -0x11(%rbp),%edx
  405ec0:	e8 ab 00 00 00       	call   405f70 <fill_tab>
  405ec5:	8b 45 d4             	mov    -0x2c(%rbp),%eax
  405ec8:	83 c0 01             	add    $0x1,%eax
  405ecb:	89 45 d4             	mov    %eax,-0x2c(%rbp)
  405ece:	48 8b 45 d8          	mov    -0x28(%rbp),%rax
  405ed2:	48 03 45 e0          	add    -0x20(%rbp),%rax
  405ed6:	48 89 45 d8          	mov    %rax,-0x28(%rbp)
  405eda:	e9 0c 00 00 00       	jmp    405eeb <alloc_tab+0x12b>
  405edf:	48 8b 45 d8          	mov    -0x28(%rbp),%rax
  405ee3:	48 83 c0 01          	add    $0x1,%rax
  405ee7:	48 89 45 d8          	mov    %rax,-0x28(%rbp)
  405eeb:	e9 f4 fe ff ff       	jmp    405de4 <alloc_tab+0x24>
  405ef0:	48 8b 45 f8          	mov    -0x8(%rbp),%rax
  405ef4:	48 63 4d d4          	movslq -0x2c(%rbp),%rcx
  405ef8:	48 c7 04 c8 00 00 00 	movq   $0x0,(%rax,%rcx,8)
  405eff:	00 
  405f00:	48 83 c4 30          	add    $0x30,%rsp
  405f04:	5d                   	pop    %rbp
  405f05:	c3                   	ret    
  405f06:	66 2e 0f 1f 84 00 00 	cs nopw 0x0(%rax,%rax,1)
  405f0d:	00 00 00 

0000000000405f10 <free_tab>:
  405f10:	55                   	push   %rbp
  405f11:	48 89 e5             	mov    %rsp,%rbp
  405f14:	48 83 ec 10          	sub    $0x10,%rsp
  405f18:	48 89 7d f8          	mov    %rdi,-0x8(%rbp)
  405f1c:	89 75 f4             	mov    %esi,-0xc(%rbp)
  405f1f:	c7 45 f0 00 00 00 00 	movl   $0x0,-0x10(%rbp)
  405f26:	8b 45 f0             	mov    -0x10(%rbp),%eax
  405f29:	3b 45 f4             	cmp    -0xc(%rbp),%eax
  405f2c:	0f 8d 1f 00 00 00    	jge    405f51 <free_tab+0x41>
  405f32:	48 8b 45 f8          	mov    -0x8(%rbp),%rax
  405f36:	48 63 4d f0          	movslq -0x10(%rbp),%rcx
  405f3a:	48 8b 3c c8          	mov    (%rax,%rcx,8),%rdi
  405f3e:	e8 0d d8 ff ff       	call   403750 <mm_free>
  405f43:	8b 45 f0             	mov    -0x10(%rbp),%eax
  405f46:	83 c0 01             	add    $0x1,%eax
  405f49:	89 45 f0             	mov    %eax,-0x10(%rbp)
  405f4c:	e9 d5 ff ff ff       	jmp    405f26 <free_tab+0x16>
  405f51:	48 8b 7d f8          	mov    -0x8(%rbp),%rdi
  405f55:	e8 e6 b0 ff ff       	call   401040 <free@plt>
  405f5a:	48 c7 45 f8 00 00 00 	movq   $0x0,-0x8(%rbp)
  405f61:	00 
  405f62:	48 83 c4 10          	add    $0x10,%rsp
  405f66:	5d                   	pop    %rbp
  405f67:	c3                   	ret    
  405f68:	0f 1f 84 00 00 00 00 	nopl   0x0(%rax,%rax,1)
  405f6f:	00 

0000000000405f70 <fill_tab>:
  405f70:	55                   	push   %rbp
  405f71:	48 89 e5             	mov    %rsp,%rbp
  405f74:	88 d0                	mov    %dl,%al
  405f76:	48 89 7d f8          	mov    %rdi,-0x8(%rbp)
  405f7a:	48 89 75 f0          	mov    %rsi,-0x10(%rbp)
  405f7e:	88 45 ef             	mov    %al,-0x11(%rbp)
  405f81:	48 c7 45 e0 00 00 00 	movq   $0x0,-0x20(%rbp)
  405f88:	00 
  405f89:	48 8b 45 f0          	mov    -0x10(%rbp),%rax
  405f8d:	48 8b 4d e0          	mov    -0x20(%rbp),%rcx
  405f91:	0f be 0c 08          	movsbl (%rax,%rcx,1),%ecx
  405f95:	31 c0                	xor    %eax,%eax
  405f97:	83 f9 00             	cmp    $0x0,%ecx
  405f9a:	88 45 df             	mov    %al,-0x21(%rbp)
  405f9d:	0f 84 18 00 00 00    	je     405fbb <fill_tab+0x4b>
  405fa3:	48 8b 45 f0          	mov    -0x10(%rbp),%rax
  405fa7:	48 8b 4d e0          	mov    -0x20(%rbp),%rcx
  405fab:	0f be 04 08          	movsbl (%rax,%rcx,1),%eax
  405faf:	0f be 4d ef          	movsbl -0x11(%rbp),%ecx
  405fb3:	39 c8                	cmp    %ecx,%eax
  405fb5:	0f 95 c0             	setne  %al
  405fb8:	88 45 df             	mov    %al,-0x21(%rbp)
  405fbb:	8a 45 df             	mov    -0x21(%rbp),%al
  405fbe:	a8 01                	test   $0x1,%al
  405fc0:	0f 85 05 00 00 00    	jne    405fcb <fill_tab+0x5b>
  405fc6:	e9 27 00 00 00       	jmp    405ff2 <fill_tab+0x82>
  405fcb:	48 8b 45 f0          	mov    -0x10(%rbp),%rax
  405fcf:	48 8b 4d e0          	mov    -0x20(%rbp),%rcx
  405fd3:	8a 14 08             	mov    (%rax,%rcx,1),%dl
  405fd6:	48 8b 45 f8          	mov    -0x8(%rbp),%rax
  405fda:	48 8b 4d e0          	mov    -0x20(%rbp),%rcx
  405fde:	88 14 08             	mov    %dl,(%rax,%rcx,1)
  405fe1:	48 8b 45 e0          	mov    -0x20(%rbp),%rax
  405fe5:	48 83 c0 01          	add    $0x1,%rax
  405fe9:	48 89 45 e0          	mov    %rax,-0x20(%rbp)
  405fed:	e9 97 ff ff ff       	jmp    405f89 <fill_tab+0x19>
  405ff2:	48 8b 45 f8          	mov    -0x8(%rbp),%rax
  405ff6:	48 8b 4d e0          	mov    -0x20(%rbp),%rcx
  405ffa:	c6 04 08 00          	movb   $0x0,(%rax,%rcx,1)
  405ffe:	5d                   	pop    %rbp
  405fff:	c3                   	ret    

0000000000406000 <line_getter>:
  406000:	55                   	push   %rbp
  406001:	48 89 e5             	mov    %rsp,%rbp
  406004:	48 83 ec 30          	sub    $0x30,%rsp
  406008:	48 89 7d f0          	mov    %rdi,-0x10(%rbp)
  40600c:	89 75 ec             	mov    %esi,-0x14(%rbp)
  40600f:	c7 45 e8 00 00 00 00 	movl   $0x0,-0x18(%rbp)
  406016:	48 83 7d f0 00       	cmpq   $0x0,-0x10(%rbp)
  40601b:	0f 85 0d 00 00 00    	jne    40602e <line_getter+0x2e>
  406021:	48 c7 45 f8 00 00 00 	movq   $0x0,-0x8(%rbp)
  406028:	00 
  406029:	e9 51 01 00 00       	jmp    40617f <line_getter+0x17f>
  40602e:	e9 00 00 00 00       	jmp    406033 <line_getter+0x33>
  406033:	48 8b 45 f0          	mov    -0x10(%rbp),%rax
  406037:	48 63 4d e8          	movslq -0x18(%rbp),%rcx
  40603b:	0f be 0c 08          	movsbl (%rax,%rcx,1),%ecx
  40603f:	31 c0                	xor    %eax,%eax
  406041:	83 f9 00             	cmp    $0x0,%ecx
  406044:	88 45 df             	mov    %al,-0x21(%rbp)
  406047:	0f 84 15 00 00 00    	je     406062 <line_getter+0x62>
  40604d:	48 8b 45 f0          	mov    -0x10(%rbp),%rax
  406051:	48 63 4d e8          	movslq -0x18(%rbp),%rcx
  406055:	0f be 04 08          	movsbl (%rax,%rcx,1),%eax
  406059:	83 f8 0a             	cmp    $0xa,%eax
  40605c:	0f 95 c0             	setne  %al
  40605f:	88 45 df             	mov    %al,-0x21(%rbp)
  406062:	8a 45 df             	mov    -0x21(%rbp),%al
  406065:	a8 01                	test   $0x1,%al
  406067:	0f 85 05 00 00 00    	jne    406072 <line_getter+0x72>
  40606d:	e9 0e 00 00 00       	jmp    406080 <line_getter+0x80>
  406072:	8b 45 e8             	mov    -0x18(%rbp),%eax
  406075:	83 c0 01             	add    $0x1,%eax
  406078:	89 45 e8             	mov    %eax,-0x18(%rbp)
  40607b:	e9 b3 ff ff ff       	jmp    406033 <line_getter+0x33>
  406080:	48 8b 45 f0          	mov    -0x10(%rbp),%rax
  406084:	48 63 4d e8          	movslq -0x18(%rbp),%rcx
  406088:	0f be 04 08          	movsbl (%rax,%rcx,1),%eax
  40608c:	83 f8 0a             	cmp    $0xa,%eax
  40608f:	0f 85 09 00 00 00    	jne    40609e <line_getter+0x9e>
  406095:	8b 45 e8             	mov    -0x18(%rbp),%eax
  406098:	83 c0 01             	add    $0x1,%eax
  40609b:	89 45 e8             	mov    %eax,-0x18(%rbp)
  40609e:	8b 45 e8             	mov    -0x18(%rbp),%eax
  4060a1:	83 c0 01             	add    $0x1,%eax
  4060a4:	48 63 f8             	movslq %eax,%rdi
  4060a7:	48 c1 e7 00          	shl    $0x0,%rdi
  4060ab:	e8 60 b0 ff ff       	call   401110 <malloc@plt>
  4060b0:	48 89 45 e0          	mov    %rax,-0x20(%rbp)
  4060b4:	48 83 7d e0 00       	cmpq   $0x0,-0x20(%rbp)
  4060b9:	0f 85 0d 00 00 00    	jne    4060cc <line_getter+0xcc>
  4060bf:	48 c7 45 f8 00 00 00 	movq   $0x0,-0x8(%rbp)
  4060c6:	00 
  4060c7:	e9 b3 00 00 00       	jmp    40617f <line_getter+0x17f>
  4060cc:	c7 45 e8 00 00 00 00 	movl   $0x0,-0x18(%rbp)
  4060d3:	48 8b 45 f0          	mov    -0x10(%rbp),%rax
  4060d7:	48 63 4d e8          	movslq -0x18(%rbp),%rcx
  4060db:	0f be 0c 08          	movsbl (%rax,%rcx,1),%ecx
  4060df:	31 c0                	xor    %eax,%eax
  4060e1:	83 f9 00             	cmp    $0x0,%ecx
  4060e4:	88 45 de             	mov    %al,-0x22(%rbp)
  4060e7:	0f 84 15 00 00 00    	je     406102 <line_getter+0x102>
  4060ed:	48 8b 45 f0          	mov    -0x10(%rbp),%rax
  4060f1:	48 63 4d e8          	movslq -0x18(%rbp),%rcx
  4060f5:	0f be 04 08          	movsbl (%rax,%rcx,1),%eax
  4060f9:	83 f8 0a             	cmp    $0xa,%eax
  4060fc:	0f 95 c0             	setne  %al
  4060ff:	88 45 de             	mov    %al,-0x22(%rbp)
  406102:	8a 45 de             	mov    -0x22(%rbp),%al
  406105:	a8 01                	test   $0x1,%al
  406107:	0f 85 05 00 00 00    	jne    406112 <line_getter+0x112>
  40610d:	e9 24 00 00 00       	jmp    406136 <line_getter+0x136>
  406112:	48 8b 45 f0          	mov    -0x10(%rbp),%rax
  406116:	48 63 4d e8          	movslq -0x18(%rbp),%rcx
  40611a:	8a 14 08             	mov    (%rax,%rcx,1),%dl
  40611d:	48 8b 45 e0          	mov    -0x20(%rbp),%rax
  406121:	48 63 4d e8          	movslq -0x18(%rbp),%rcx
  406125:	88 14 08             	mov    %dl,(%rax,%rcx,1)
  406128:	8b 45 e8             	mov    -0x18(%rbp),%eax
  40612b:	83 c0 01             	add    $0x1,%eax
  40612e:	89 45 e8             	mov    %eax,-0x18(%rbp)
  406131:	e9 9d ff ff ff       	jmp    4060d3 <line_getter+0xd3>
  406136:	83 7d ec 00          	cmpl   $0x0,-0x14(%rbp)
  40613a:	0f 84 2b 00 00 00    	je     40616b <line_getter+0x16b>
  406140:	48 8b 45 f0          	mov    -0x10(%rbp),%rax
  406144:	48 63 4d e8          	movslq -0x18(%rbp),%rcx
  406148:	0f be 04 08          	movsbl (%rax,%rcx,1),%eax
  40614c:	83 f8 0a             	cmp    $0xa,%eax
  40614f:	0f 85 16 00 00 00    	jne    40616b <line_getter+0x16b>
  406155:	48 8b 45 e0          	mov    -0x20(%rbp),%rax
  406159:	8b 4d e8             	mov    -0x18(%rbp),%ecx
  40615c:	89 ca                	mov    %ecx,%edx
  40615e:	83 c2 01             	add    $0x1,%edx
  406161:	89 55 e8             	mov    %edx,-0x18(%rbp)
  406164:	48 63 c9             	movslq %ecx,%rcx
  406167:	c6 04 08 0a          	movb   $0xa,(%rax,%rcx,1)
  40616b:	48 8b 45 e0          	mov    -0x20(%rbp),%rax
  40616f:	48 63 4d e8          	movslq -0x18(%rbp),%rcx
  406173:	c6 04 08 00          	movb   $0x0,(%rax,%rcx,1)
  406177:	48 8b 45 e0          	mov    -0x20(%rbp),%rax
  40617b:	48 89 45 f8          	mov    %rax,-0x8(%rbp)
  40617f:	48 8b 45 f8          	mov    -0x8(%rbp),%rax
  406183:	48 83 c4 30          	add    $0x30,%rsp
  406187:	5d                   	pop    %rbp
  406188:	c3                   	ret    
  406189:	0f 1f 80 00 00 00 00 	nopl   0x0(%rax)

0000000000406190 <update_remainder>:
  406190:	55                   	push   %rbp
  406191:	48 89 e5             	mov    %rsp,%rbp
  406194:	48 83 ec 30          	sub    $0x30,%rsp
  406198:	48 89 7d f0          	mov    %rdi,-0x10(%rbp)
  40619c:	c7 45 ec 00 00 00 00 	movl   $0x0,-0x14(%rbp)
  4061a3:	c7 45 e8 00 00 00 00 	movl   $0x0,-0x18(%rbp)
  4061aa:	48 83 7d f0 00       	cmpq   $0x0,-0x10(%rbp)
  4061af:	0f 85 0d 00 00 00    	jne    4061c2 <update_remainder+0x32>
  4061b5:	48 c7 45 f8 00 00 00 	movq   $0x0,-0x8(%rbp)
  4061bc:	00 
  4061bd:	e9 30 01 00 00       	jmp    4062f2 <update_remainder+0x162>
  4061c2:	e9 00 00 00 00       	jmp    4061c7 <update_remainder+0x37>
  4061c7:	48 8b 45 f0          	mov    -0x10(%rbp),%rax
  4061cb:	48 63 4d ec          	movslq -0x14(%rbp),%rcx
  4061cf:	0f be 0c 08          	movsbl (%rax,%rcx,1),%ecx
  4061d3:	31 c0                	xor    %eax,%eax
  4061d5:	83 f9 00             	cmp    $0x0,%ecx
  4061d8:	88 45 df             	mov    %al,-0x21(%rbp)
  4061db:	0f 84 15 00 00 00    	je     4061f6 <update_remainder+0x66>
  4061e1:	48 8b 45 f0          	mov    -0x10(%rbp),%rax
  4061e5:	48 63 4d ec          	movslq -0x14(%rbp),%rcx
  4061e9:	0f be 04 08          	movsbl (%rax,%rcx,1),%eax
  4061ed:	83 f8 0a             	cmp    $0xa,%eax
  4061f0:	0f 95 c0             	setne  %al
  4061f3:	88 45 df             	mov    %al,-0x21(%rbp)
  4061f6:	8a 45 df             	mov    -0x21(%rbp),%al
  4061f9:	a8 01                	test   $0x1,%al
  4061fb:	0f 85 05 00 00 00    	jne    406206 <update_remainder+0x76>
  406201:	e9 0e 00 00 00       	jmp    406214 <update_remainder+0x84>
  406206:	8b 45 ec             	mov    -0x14(%rbp),%eax
  406209:	83 c0 01             	add    $0x1,%eax
  40620c:	89 45 ec             	mov    %eax,-0x14(%rbp)
  40620f:	e9 b3 ff ff ff       	jmp    4061c7 <update_remainder+0x37>
  406214:	48 8b 45 f0          	mov    -0x10(%rbp),%rax
  406218:	48 63 4d ec          	movslq -0x14(%rbp),%rcx
  40621c:	80 3c 08 00          	cmpb   $0x0,(%rax,%rcx,1)
  406220:	0f 84 17 00 00 00    	je     40623d <update_remainder+0xad>
  406226:	48 8b 45 f0          	mov    -0x10(%rbp),%rax
  40622a:	8b 4d ec             	mov    -0x14(%rbp),%ecx
  40622d:	83 c1 01             	add    $0x1,%ecx
  406230:	48 63 c9             	movslq %ecx,%rcx
  406233:	80 3c 08 00          	cmpb   $0x0,(%rax,%rcx,1)
  406237:	0f 85 16 00 00 00    	jne    406253 <update_remainder+0xc3>
  40623d:	48 8b 7d f0          	mov    -0x10(%rbp),%rdi
  406241:	e8 fa ad ff ff       	call   401040 <free@plt>
  406246:	48 c7 45 f8 00 00 00 	movq   $0x0,-0x8(%rbp)
  40624d:	00 
  40624e:	e9 9f 00 00 00       	jmp    4062f2 <update_remainder+0x162>
  406253:	48 8b 7d f0          	mov    -0x10(%rbp),%rdi
  406257:	e8 24 0c 00 00       	call   406e80 <gnl_strlen>
  40625c:	48 89 c7             	mov    %rax,%rdi
  40625f:	48 63 45 ec          	movslq -0x14(%rbp),%rax
  406263:	48 29 c7             	sub    %rax,%rdi
  406266:	48 c1 e7 00          	shl    $0x0,%rdi
  40626a:	e8 a1 ae ff ff       	call   401110 <malloc@plt>
  40626f:	48 89 45 e0          	mov    %rax,-0x20(%rbp)
  406273:	48 83 7d e0 00       	cmpq   $0x0,-0x20(%rbp)
  406278:	0f 85 0d 00 00 00    	jne    40628b <update_remainder+0xfb>
  40627e:	48 c7 45 f8 00 00 00 	movq   $0x0,-0x8(%rbp)
  406285:	00 
  406286:	e9 67 00 00 00       	jmp    4062f2 <update_remainder+0x162>
  40628b:	8b 45 ec             	mov    -0x14(%rbp),%eax
  40628e:	83 c0 01             	add    $0x1,%eax
  406291:	89 45 ec             	mov    %eax,-0x14(%rbp)
  406294:	48 8b 45 f0          	mov    -0x10(%rbp),%rax
  406298:	48 63 4d ec          	movslq -0x14(%rbp),%rcx
  40629c:	80 3c 08 00          	cmpb   $0x0,(%rax,%rcx,1)
  4062a0:	0f 84 2f 00 00 00    	je     4062d5 <update_remainder+0x145>
  4062a6:	48 8b 45 f0          	mov    -0x10(%rbp),%rax
  4062aa:	8b 4d ec             	mov    -0x14(%rbp),%ecx
  4062ad:	89 ca                	mov    %ecx,%edx
  4062af:	83 c2 01             	add    $0x1,%edx
  4062b2:	89 55 ec             	mov    %edx,-0x14(%rbp)
  4062b5:	48 63 c9             	movslq %ecx,%rcx
  4062b8:	8a 14 08             	mov    (%rax,%rcx,1),%dl
  4062bb:	48 8b 45 e0          	mov    -0x20(%rbp),%rax
  4062bf:	8b 4d e8             	mov    -0x18(%rbp),%ecx
  4062c2:	89 ce                	mov    %ecx,%esi
  4062c4:	83 c6 01             	add    $0x1,%esi
  4062c7:	89 75 e8             	mov    %esi,-0x18(%rbp)
  4062ca:	48 63 c9             	movslq %ecx,%rcx
  4062cd:	88 14 08             	mov    %dl,(%rax,%rcx,1)
  4062d0:	e9 bf ff ff ff       	jmp    406294 <update_remainder+0x104>
  4062d5:	48 8b 45 e0          	mov    -0x20(%rbp),%rax
  4062d9:	48 63 4d e8          	movslq -0x18(%rbp),%rcx
  4062dd:	c6 04 08 00          	movb   $0x0,(%rax,%rcx,1)
  4062e1:	48 8b 7d f0          	mov    -0x10(%rbp),%rdi
  4062e5:	e8 56 ad ff ff       	call   401040 <free@plt>
  4062ea:	48 8b 45 e0          	mov    -0x20(%rbp),%rax
  4062ee:	48 89 45 f8          	mov    %rax,-0x8(%rbp)
  4062f2:	48 8b 45 f8          	mov    -0x8(%rbp),%rax
  4062f6:	48 83 c4 30          	add    $0x30,%rsp
  4062fa:	5d                   	pop    %rbp
  4062fb:	c3                   	ret    
  4062fc:	0f 1f 40 00          	nopl   0x0(%rax)

0000000000406300 <read_and_store>:
  406300:	55                   	push   %rbp
  406301:	48 89 e5             	mov    %rsp,%rbp
  406304:	48 83 ec 30          	sub    $0x30,%rsp
  406308:	89 7d f4             	mov    %edi,-0xc(%rbp)
  40630b:	48 89 75 e8          	mov    %rsi,-0x18(%rbp)
  40630f:	bf 01 04 00 00       	mov    $0x401,%edi
  406314:	e8 f7 ad ff ff       	call   401110 <malloc@plt>
  406319:	48 89 45 e0          	mov    %rax,-0x20(%rbp)
  40631d:	48 83 7d e0 00       	cmpq   $0x0,-0x20(%rbp)
  406322:	0f 85 0d 00 00 00    	jne    406335 <read_and_store+0x35>
  406328:	48 c7 45 f8 00 00 00 	movq   $0x0,-0x8(%rbp)
  40632f:	00 
  406330:	e9 17 01 00 00       	jmp    40644c <read_and_store+0x14c>
  406335:	c7 45 dc 01 00 00 00 	movl   $0x1,-0x24(%rbp)
  40633c:	83 7d dc 00          	cmpl   $0x0,-0x24(%rbp)
  406340:	0f 8e f5 00 00 00    	jle    40643b <read_and_store+0x13b>
  406346:	8b 7d f4             	mov    -0xc(%rbp),%edi
  406349:	48 8b 75 e0          	mov    -0x20(%rbp),%rsi
  40634d:	ba 00 04 00 00       	mov    $0x400,%edx
  406352:	e8 69 ad ff ff       	call   4010c0 <read@plt>
  406357:	89 45 dc             	mov    %eax,-0x24(%rbp)
  40635a:	83 7d dc 00          	cmpl   $0x0,-0x24(%rbp)
  40635e:	0f 8d 2a 00 00 00    	jge    40638e <read_and_store+0x8e>
  406364:	48 83 7d e8 00       	cmpq   $0x0,-0x18(%rbp)
  406369:	0f 84 1f 00 00 00    	je     40638e <read_and_store+0x8e>
  40636f:	48 8b 7d e0          	mov    -0x20(%rbp),%rdi
  406373:	e8 c8 ac ff ff       	call   401040 <free@plt>
  406378:	48 8b 7d e8          	mov    -0x18(%rbp),%rdi
  40637c:	e8 bf ac ff ff       	call   401040 <free@plt>
  406381:	48 c7 45 f8 00 00 00 	movq   $0x0,-0x8(%rbp)
  406388:	00 
  406389:	e9 be 00 00 00       	jmp    40644c <read_and_store+0x14c>
  40638e:	83 7d dc 00          	cmpl   $0x0,-0x24(%rbp)
  406392:	0f 8d 16 00 00 00    	jge    4063ae <read_and_store+0xae>
  406398:	48 8b 7d e0          	mov    -0x20(%rbp),%rdi
  40639c:	e8 9f ac ff ff       	call   401040 <free@plt>
  4063a1:	48 c7 45 f8 00 00 00 	movq   $0x0,-0x8(%rbp)
  4063a8:	00 
  4063a9:	e9 9e 00 00 00       	jmp    40644c <read_and_store+0x14c>
  4063ae:	e9 00 00 00 00       	jmp    4063b3 <read_and_store+0xb3>
  4063b3:	48 8b 45 e0          	mov    -0x20(%rbp),%rax
  4063b7:	48 63 4d dc          	movslq -0x24(%rbp),%rcx
  4063bb:	c6 04 08 00          	movb   $0x0,(%rax,%rcx,1)
  4063bf:	48 8b 7d e8          	mov    -0x18(%rbp),%rdi
  4063c3:	48 8b 75 e0          	mov    -0x20(%rbp),%rsi
  4063c7:	e8 e4 0b 00 00       	call   406fb0 <str_join>
  4063cc:	48 89 45 e8          	mov    %rax,-0x18(%rbp)
  4063d0:	48 83 7d e8 00       	cmpq   $0x0,-0x18(%rbp)
  4063d5:	0f 85 1f 00 00 00    	jne    4063fa <read_and_store+0xfa>
  4063db:	48 8b 7d e0          	mov    -0x20(%rbp),%rdi
  4063df:	e8 5c ac ff ff       	call   401040 <free@plt>
  4063e4:	48 8b 7d e8          	mov    -0x18(%rbp),%rdi
  4063e8:	e8 53 ac ff ff       	call   401040 <free@plt>
  4063ed:	48 c7 45 f8 00 00 00 	movq   $0x0,-0x8(%rbp)
  4063f4:	00 
  4063f5:	e9 52 00 00 00       	jmp    40644c <read_and_store+0x14c>
  4063fa:	83 7d dc 00          	cmpl   $0x0,-0x24(%rbp)
  4063fe:	0f 84 2d 00 00 00    	je     406431 <read_and_store+0x131>
  406404:	83 7d dc 00          	cmpl   $0x0,-0x24(%rbp)
  406408:	0f 8e 28 00 00 00    	jle    406436 <read_and_store+0x136>
  40640e:	48 83 7d e8 00       	cmpq   $0x0,-0x18(%rbp)
  406413:	0f 84 1d 00 00 00    	je     406436 <read_and_store+0x136>
  406419:	48 8b 7d e8          	mov    -0x18(%rbp),%rdi
  40641d:	be 0a 00 00 00       	mov    $0xa,%esi
  406422:	e8 b9 0a 00 00       	call   406ee0 <ft_strchr>
  406427:	48 83 f8 00          	cmp    $0x0,%rax
  40642b:	0f 84 05 00 00 00    	je     406436 <read_and_store+0x136>
  406431:	e9 05 00 00 00       	jmp    40643b <read_and_store+0x13b>
  406436:	e9 01 ff ff ff       	jmp    40633c <read_and_store+0x3c>
  40643b:	48 8b 7d e0          	mov    -0x20(%rbp),%rdi
  40643f:	e8 fc ab ff ff       	call   401040 <free@plt>
  406444:	48 8b 45 e8          	mov    -0x18(%rbp),%rax
  406448:	48 89 45 f8          	mov    %rax,-0x8(%rbp)
  40644c:	48 8b 45 f8          	mov    -0x8(%rbp),%rax
  406450:	48 83 c4 30          	add    $0x30,%rsp
  406454:	5d                   	pop    %rbp
  406455:	c3                   	ret    
  406456:	66 2e 0f 1f 84 00 00 	cs nopw 0x0(%rax,%rax,1)
  40645d:	00 00 00 

0000000000406460 <get_next_line>:
  406460:	55                   	push   %rbp
  406461:	48 89 e5             	mov    %rsp,%rbp
  406464:	48 81 ec 90 00 00 00 	sub    $0x90,%rsp
  40646b:	89 7d 8c             	mov    %edi,-0x74(%rbp)
  40646e:	83 7d 8c 00          	cmpl   $0x0,-0x74(%rbp)
  406472:	0f 8d 0d 00 00 00    	jge    406485 <get_next_line+0x25>
  406478:	48 c7 45 90 00 00 00 	movq   $0x0,-0x70(%rbp)
  40647f:	00 
  406480:	e9 d7 04 00 00       	jmp    40695c <get_next_line+0x4fc>
  406485:	8b 4d 8c             	mov    -0x74(%rbp),%ecx
  406488:	48 63 45 8c          	movslq -0x74(%rbp),%rax
  40648c:	48 8b 04 c5 00 21 41 	mov    0x412100(,%rax,8),%rax
  406493:	00 
  406494:	89 4d b4             	mov    %ecx,-0x4c(%rbp)
  406497:	48 89 45 a8          	mov    %rax,-0x58(%rbp)
  40649b:	bf 01 04 00 00       	mov    $0x401,%edi
  4064a0:	e8 6b ac ff ff       	call   401110 <malloc@plt>
  4064a5:	48 89 45 a0          	mov    %rax,-0x60(%rbp)
  4064a9:	48 83 7d a0 00       	cmpq   $0x0,-0x60(%rbp)
  4064ae:	0f 85 0d 00 00 00    	jne    4064c1 <get_next_line+0x61>
  4064b4:	48 c7 45 b8 00 00 00 	movq   $0x0,-0x48(%rbp)
  4064bb:	00 
  4064bc:	e9 12 01 00 00       	jmp    4065d3 <get_next_line+0x173>
  4064c1:	c7 45 9c 01 00 00 00 	movl   $0x1,-0x64(%rbp)
  4064c8:	83 7d 9c 00          	cmpl   $0x0,-0x64(%rbp)
  4064cc:	0f 8e f0 00 00 00    	jle    4065c2 <get_next_line+0x162>
  4064d2:	8b 7d b4             	mov    -0x4c(%rbp),%edi
  4064d5:	48 8b 75 a0          	mov    -0x60(%rbp),%rsi
  4064d9:	ba 00 04 00 00       	mov    $0x400,%edx
  4064de:	e8 dd ab ff ff       	call   4010c0 <read@plt>
  4064e3:	89 45 9c             	mov    %eax,-0x64(%rbp)
  4064e6:	83 7d 9c 00          	cmpl   $0x0,-0x64(%rbp)
  4064ea:	0f 8d 2a 00 00 00    	jge    40651a <get_next_line+0xba>
  4064f0:	48 83 7d a8 00       	cmpq   $0x0,-0x58(%rbp)
  4064f5:	0f 84 1f 00 00 00    	je     40651a <get_next_line+0xba>
  4064fb:	48 8b 7d a0          	mov    -0x60(%rbp),%rdi
  4064ff:	e8 3c ab ff ff       	call   401040 <free@plt>
  406504:	48 8b 7d a8          	mov    -0x58(%rbp),%rdi
  406508:	e8 33 ab ff ff       	call   401040 <free@plt>
  40650d:	48 c7 45 b8 00 00 00 	movq   $0x0,-0x48(%rbp)
  406514:	00 
  406515:	e9 b9 00 00 00       	jmp    4065d3 <get_next_line+0x173>
  40651a:	83 7d 9c 00          	cmpl   $0x0,-0x64(%rbp)
  40651e:	0f 8d 16 00 00 00    	jge    40653a <get_next_line+0xda>
  406524:	48 8b 7d a0          	mov    -0x60(%rbp),%rdi
  406528:	e8 13 ab ff ff       	call   401040 <free@plt>
  40652d:	48 c7 45 b8 00 00 00 	movq   $0x0,-0x48(%rbp)
  406534:	00 
  406535:	e9 99 00 00 00       	jmp    4065d3 <get_next_line+0x173>
  40653a:	48 8b 45 a0          	mov    -0x60(%rbp),%rax
  40653e:	48 63 4d 9c          	movslq -0x64(%rbp),%rcx
  406542:	c6 04 08 00          	movb   $0x0,(%rax,%rcx,1)
  406546:	48 8b 7d a8          	mov    -0x58(%rbp),%rdi
  40654a:	48 8b 75 a0          	mov    -0x60(%rbp),%rsi
  40654e:	e8 5d 0a 00 00       	call   406fb0 <str_join>
  406553:	48 89 45 a8          	mov    %rax,-0x58(%rbp)
  406557:	48 83 7d a8 00       	cmpq   $0x0,-0x58(%rbp)
  40655c:	0f 85 1f 00 00 00    	jne    406581 <get_next_line+0x121>
  406562:	48 8b 7d a0          	mov    -0x60(%rbp),%rdi
  406566:	e8 d5 aa ff ff       	call   401040 <free@plt>
  40656b:	48 8b 7d a8          	mov    -0x58(%rbp),%rdi
  40656f:	e8 cc aa ff ff       	call   401040 <free@plt>
  406574:	48 c7 45 b8 00 00 00 	movq   $0x0,-0x48(%rbp)
  40657b:	00 
  40657c:	e9 52 00 00 00       	jmp    4065d3 <get_next_line+0x173>
  406581:	83 7d 9c 00          	cmpl   $0x0,-0x64(%rbp)
  406585:	0f 84 2d 00 00 00    	je     4065b8 <get_next_line+0x158>
  40658b:	83 7d 9c 00          	cmpl   $0x0,-0x64(%rbp)
  40658f:	0f 8e 28 00 00 00    	jle    4065bd <get_next_line+0x15d>
  406595:	48 83 7d a8 00       	cmpq   $0x0,-0x58(%rbp)
  40659a:	0f 84 1d 00 00 00    	je     4065bd <get_next_line+0x15d>
  4065a0:	48 8b 7d a8          	mov    -0x58(%rbp),%rdi
  4065a4:	be 0a 00 00 00       	mov    $0xa,%esi
  4065a9:	e8 32 09 00 00       	call   406ee0 <ft_strchr>
  4065ae:	48 83 f8 00          	cmp    $0x0,%rax
  4065b2:	0f 84 05 00 00 00    	je     4065bd <get_next_line+0x15d>
  4065b8:	e9 05 00 00 00       	jmp    4065c2 <get_next_line+0x162>
  4065bd:	e9 06 ff ff ff       	jmp    4064c8 <get_next_line+0x68>
  4065c2:	48 8b 7d a0          	mov    -0x60(%rbp),%rdi
  4065c6:	e8 75 aa ff ff       	call   401040 <free@plt>
  4065cb:	48 8b 45 a8          	mov    -0x58(%rbp),%rax
  4065cf:	48 89 45 b8          	mov    %rax,-0x48(%rbp)
  4065d3:	48 8b 4d b8          	mov    -0x48(%rbp),%rcx
  4065d7:	48 63 45 8c          	movslq -0x74(%rbp),%rax
  4065db:	48 89 0c c5 00 21 41 	mov    %rcx,0x412100(,%rax,8)
  4065e2:	00 
  4065e3:	48 63 45 8c          	movslq -0x74(%rbp),%rax
  4065e7:	48 83 3c c5 00 21 41 	cmpq   $0x0,0x412100(,%rax,8)
  4065ee:	00 00 
  4065f0:	0f 84 18 00 00 00    	je     40660e <get_next_line+0x1ae>
  4065f6:	48 63 45 8c          	movslq -0x74(%rbp),%rax
  4065fa:	48 8b 04 c5 00 21 41 	mov    0x412100(,%rax,8),%rax
  406601:	00 
  406602:	0f be 00             	movsbl (%rax),%eax
  406605:	83 f8 00             	cmp    $0x0,%eax
  406608:	0f 85 2e 00 00 00    	jne    40663c <get_next_line+0x1dc>
  40660e:	48 63 45 8c          	movslq -0x74(%rbp),%rax
  406612:	48 8b 3c c5 00 21 41 	mov    0x412100(,%rax,8),%rdi
  406619:	00 
  40661a:	e8 21 aa ff ff       	call   401040 <free@plt>
  40661f:	48 63 45 8c          	movslq -0x74(%rbp),%rax
  406623:	48 c7 04 c5 00 21 41 	movq   $0x0,0x412100(,%rax,8)
  40662a:	00 00 00 00 00 
  40662f:	48 c7 45 90 00 00 00 	movq   $0x0,-0x70(%rbp)
  406636:	00 
  406637:	e9 20 03 00 00       	jmp    40695c <get_next_line+0x4fc>
  40663c:	48 63 45 8c          	movslq -0x74(%rbp),%rax
  406640:	48 8b 04 c5 00 21 41 	mov    0x412100(,%rax,8),%rax
  406647:	00 
  406648:	48 89 45 d0          	mov    %rax,-0x30(%rbp)
  40664c:	c7 45 cc 01 00 00 00 	movl   $0x1,-0x34(%rbp)
  406653:	c7 45 c8 00 00 00 00 	movl   $0x0,-0x38(%rbp)
  40665a:	48 83 7d d0 00       	cmpq   $0x0,-0x30(%rbp)
  40665f:	0f 85 0d 00 00 00    	jne    406672 <get_next_line+0x212>
  406665:	48 c7 45 d8 00 00 00 	movq   $0x0,-0x28(%rbp)
  40666c:	00 
  40666d:	e9 5f 01 00 00       	jmp    4067d1 <get_next_line+0x371>
  406672:	e9 00 00 00 00       	jmp    406677 <get_next_line+0x217>
  406677:	48 8b 45 d0          	mov    -0x30(%rbp),%rax
  40667b:	48 63 4d c8          	movslq -0x38(%rbp),%rcx
  40667f:	0f be 0c 08          	movsbl (%rax,%rcx,1),%ecx
  406683:	31 c0                	xor    %eax,%eax
  406685:	83 f9 00             	cmp    $0x0,%ecx
  406688:	88 85 7f ff ff ff    	mov    %al,-0x81(%rbp)
  40668e:	0f 84 18 00 00 00    	je     4066ac <get_next_line+0x24c>
  406694:	48 8b 45 d0          	mov    -0x30(%rbp),%rax
  406698:	48 63 4d c8          	movslq -0x38(%rbp),%rcx
  40669c:	0f be 04 08          	movsbl (%rax,%rcx,1),%eax
  4066a0:	83 f8 0a             	cmp    $0xa,%eax
  4066a3:	0f 95 c0             	setne  %al
  4066a6:	88 85 7f ff ff ff    	mov    %al,-0x81(%rbp)
  4066ac:	8a 85 7f ff ff ff    	mov    -0x81(%rbp),%al
  4066b2:	a8 01                	test   $0x1,%al
  4066b4:	0f 85 05 00 00 00    	jne    4066bf <get_next_line+0x25f>
  4066ba:	e9 0e 00 00 00       	jmp    4066cd <get_next_line+0x26d>
  4066bf:	8b 45 c8             	mov    -0x38(%rbp),%eax
  4066c2:	83 c0 01             	add    $0x1,%eax
  4066c5:	89 45 c8             	mov    %eax,-0x38(%rbp)
  4066c8:	e9 aa ff ff ff       	jmp    406677 <get_next_line+0x217>
  4066cd:	48 8b 45 d0          	mov    -0x30(%rbp),%rax
  4066d1:	48 63 4d c8          	movslq -0x38(%rbp),%rcx
  4066d5:	0f be 04 08          	movsbl (%rax,%rcx,1),%eax
  4066d9:	83 f8 0a             	cmp    $0xa,%eax
  4066dc:	0f 85 09 00 00 00    	jne    4066eb <get_next_line+0x28b>
  4066e2:	8b 45 c8             	mov    -0x38(%rbp),%eax
  4066e5:	83 c0 01             	add    $0x1,%eax
  4066e8:	89 45 c8             	mov    %eax,-0x38(%rbp)
  4066eb:	8b 45 c8             	mov    -0x38(%rbp),%eax
  4066ee:	83 c0 01             	add    $0x1,%eax
  4066f1:	48 63 f8             	movslq %eax,%rdi
  4066f4:	e8 17 aa ff ff       	call   401110 <malloc@plt>
  4066f9:	48 89 45 c0          	mov    %rax,-0x40(%rbp)
  4066fd:	48 83 7d c0 00       	cmpq   $0x0,-0x40(%rbp)
  406702:	0f 85 0d 00 00 00    	jne    406715 <get_next_line+0x2b5>
  406708:	48 c7 45 d8 00 00 00 	movq   $0x0,-0x28(%rbp)
  40670f:	00 
  406710:	e9 bc 00 00 00       	jmp    4067d1 <get_next_line+0x371>
  406715:	c7 45 c8 00 00 00 00 	movl   $0x0,-0x38(%rbp)
  40671c:	48 8b 45 d0          	mov    -0x30(%rbp),%rax
  406720:	48 63 4d c8          	movslq -0x38(%rbp),%rcx
  406724:	0f be 0c 08          	movsbl (%rax,%rcx,1),%ecx
  406728:	31 c0                	xor    %eax,%eax
  40672a:	83 f9 00             	cmp    $0x0,%ecx
  40672d:	88 85 7e ff ff ff    	mov    %al,-0x82(%rbp)
  406733:	0f 84 18 00 00 00    	je     406751 <get_next_line+0x2f1>
  406739:	48 8b 45 d0          	mov    -0x30(%rbp),%rax
  40673d:	48 63 4d c8          	movslq -0x38(%rbp),%rcx
  406741:	0f be 04 08          	movsbl (%rax,%rcx,1),%eax
  406745:	83 f8 0a             	cmp    $0xa,%eax
  406748:	0f 95 c0             	setne  %al
  40674b:	88 85 7e ff ff ff    	mov    %al,-0x82(%rbp)
  406751:	8a 85 7e ff ff ff    	mov    -0x82(%rbp),%al
  406757:	a8 01                	test   $0x1,%al
  406759:	0f 85 05 00 00 00    	jne    406764 <get_next_line+0x304>
  40675f:	e9 24 00 00 00       	jmp    406788 <get_next_line+0x328>
  406764:	48 8b 45 d0          	mov    -0x30(%rbp),%rax
  406768:	48 63 4d c8          	movslq -0x38(%rbp),%rcx
  40676c:	8a 14 08             	mov    (%rax,%rcx,1),%dl
  40676f:	48 8b 45 c0          	mov    -0x40(%rbp),%rax
  406773:	48 63 4d c8          	movslq -0x38(%rbp),%rcx
  406777:	88 14 08             	mov    %dl,(%rax,%rcx,1)
  40677a:	8b 45 c8             	mov    -0x38(%rbp),%eax
  40677d:	83 c0 01             	add    $0x1,%eax
  406780:	89 45 c8             	mov    %eax,-0x38(%rbp)
  406783:	e9 94 ff ff ff       	jmp    40671c <get_next_line+0x2bc>
  406788:	83 7d cc 00          	cmpl   $0x0,-0x34(%rbp)
  40678c:	0f 84 2b 00 00 00    	je     4067bd <get_next_line+0x35d>
  406792:	48 8b 45 d0          	mov    -0x30(%rbp),%rax
  406796:	48 63 4d c8          	movslq -0x38(%rbp),%rcx
  40679a:	0f be 04 08          	movsbl (%rax,%rcx,1),%eax
  40679e:	83 f8 0a             	cmp    $0xa,%eax
  4067a1:	0f 85 16 00 00 00    	jne    4067bd <get_next_line+0x35d>
  4067a7:	48 8b 45 c0          	mov    -0x40(%rbp),%rax
  4067ab:	8b 4d c8             	mov    -0x38(%rbp),%ecx
  4067ae:	89 ca                	mov    %ecx,%edx
  4067b0:	83 c2 01             	add    $0x1,%edx
  4067b3:	89 55 c8             	mov    %edx,-0x38(%rbp)
  4067b6:	48 63 c9             	movslq %ecx,%rcx
  4067b9:	c6 04 08 0a          	movb   $0xa,(%rax,%rcx,1)
  4067bd:	48 8b 45 c0          	mov    -0x40(%rbp),%rax
  4067c1:	48 63 4d c8          	movslq -0x38(%rbp),%rcx
  4067c5:	c6 04 08 00          	movb   $0x0,(%rax,%rcx,1)
  4067c9:	48 8b 45 c0          	mov    -0x40(%rbp),%rax
  4067cd:	48 89 45 d8          	mov    %rax,-0x28(%rbp)
  4067d1:	48 8b 45 d8          	mov    -0x28(%rbp),%rax
  4067d5:	48 89 45 80          	mov    %rax,-0x80(%rbp)
  4067d9:	48 63 45 8c          	movslq -0x74(%rbp),%rax
  4067dd:	48 8b 04 c5 00 21 41 	mov    0x412100(,%rax,8),%rax
  4067e4:	00 
  4067e5:	48 89 45 f0          	mov    %rax,-0x10(%rbp)
  4067e9:	c7 45 ec 00 00 00 00 	movl   $0x0,-0x14(%rbp)
  4067f0:	c7 45 e8 00 00 00 00 	movl   $0x0,-0x18(%rbp)
  4067f7:	48 83 7d f0 00       	cmpq   $0x0,-0x10(%rbp)
  4067fc:	0f 85 0d 00 00 00    	jne    40680f <get_next_line+0x3af>
  406802:	48 c7 45 f8 00 00 00 	movq   $0x0,-0x8(%rbp)
  406809:	00 
  40680a:	e9 35 01 00 00       	jmp    406944 <get_next_line+0x4e4>
  40680f:	e9 00 00 00 00       	jmp    406814 <get_next_line+0x3b4>
  406814:	48 8b 45 f0          	mov    -0x10(%rbp),%rax
  406818:	48 63 4d ec          	movslq -0x14(%rbp),%rcx
  40681c:	0f be 0c 08          	movsbl (%rax,%rcx,1),%ecx
  406820:	31 c0                	xor    %eax,%eax
  406822:	83 f9 00             	cmp    $0x0,%ecx
  406825:	88 85 7d ff ff ff    	mov    %al,-0x83(%rbp)
  40682b:	0f 84 18 00 00 00    	je     406849 <get_next_line+0x3e9>
  406831:	48 8b 45 f0          	mov    -0x10(%rbp),%rax
  406835:	48 63 4d ec          	movslq -0x14(%rbp),%rcx
  406839:	0f be 04 08          	movsbl (%rax,%rcx,1),%eax
  40683d:	83 f8 0a             	cmp    $0xa,%eax
  406840:	0f 95 c0             	setne  %al
  406843:	88 85 7d ff ff ff    	mov    %al,-0x83(%rbp)
  406849:	8a 85 7d ff ff ff    	mov    -0x83(%rbp),%al
  40684f:	a8 01                	test   $0x1,%al
  406851:	0f 85 05 00 00 00    	jne    40685c <get_next_line+0x3fc>
  406857:	e9 0e 00 00 00       	jmp    40686a <get_next_line+0x40a>
  40685c:	8b 45 ec             	mov    -0x14(%rbp),%eax
  40685f:	83 c0 01             	add    $0x1,%eax
  406862:	89 45 ec             	mov    %eax,-0x14(%rbp)
  406865:	e9 aa ff ff ff       	jmp    406814 <get_next_line+0x3b4>
  40686a:	48 8b 45 f0          	mov    -0x10(%rbp),%rax
  40686e:	48 63 4d ec          	movslq -0x14(%rbp),%rcx
  406872:	80 3c 08 00          	cmpb   $0x0,(%rax,%rcx,1)
  406876:	0f 84 17 00 00 00    	je     406893 <get_next_line+0x433>
  40687c:	48 8b 45 f0          	mov    -0x10(%rbp),%rax
  406880:	8b 4d ec             	mov    -0x14(%rbp),%ecx
  406883:	83 c1 01             	add    $0x1,%ecx
  406886:	48 63 c9             	movslq %ecx,%rcx
  406889:	80 3c 08 00          	cmpb   $0x0,(%rax,%rcx,1)
  40688d:	0f 85 16 00 00 00    	jne    4068a9 <get_next_line+0x449>
  406893:	48 8b 7d f0          	mov    -0x10(%rbp),%rdi
  406897:	e8 a4 a7 ff ff       	call   401040 <free@plt>
  40689c:	48 c7 45 f8 00 00 00 	movq   $0x0,-0x8(%rbp)
  4068a3:	00 
  4068a4:	e9 9b 00 00 00       	jmp    406944 <get_next_line+0x4e4>
  4068a9:	48 8b 7d f0          	mov    -0x10(%rbp),%rdi
  4068ad:	e8 ce 05 00 00       	call   406e80 <gnl_strlen>
  4068b2:	48 89 c7             	mov    %rax,%rdi
  4068b5:	48 63 45 ec          	movslq -0x14(%rbp),%rax
  4068b9:	48 29 c7             	sub    %rax,%rdi
  4068bc:	e8 4f a8 ff ff       	call   401110 <malloc@plt>
  4068c1:	48 89 45 e0          	mov    %rax,-0x20(%rbp)
  4068c5:	48 83 7d e0 00       	cmpq   $0x0,-0x20(%rbp)
  4068ca:	0f 85 0d 00 00 00    	jne    4068dd <get_next_line+0x47d>
  4068d0:	48 c7 45 f8 00 00 00 	movq   $0x0,-0x8(%rbp)
  4068d7:	00 
  4068d8:	e9 67 00 00 00       	jmp    406944 <get_next_line+0x4e4>
  4068dd:	8b 45 ec             	mov    -0x14(%rbp),%eax
  4068e0:	83 c0 01             	add    $0x1,%eax
  4068e3:	89 45 ec             	mov    %eax,-0x14(%rbp)
  4068e6:	48 8b 45 f0          	mov    -0x10(%rbp),%rax
  4068ea:	48 63 4d ec          	movslq -0x14(%rbp),%rcx
  4068ee:	80 3c 08 00          	cmpb   $0x0,(%rax,%rcx,1)
  4068f2:	0f 84 2f 00 00 00    	je     406927 <get_next_line+0x4c7>
  4068f8:	48 8b 45 f0          	mov    -0x10(%rbp),%rax
  4068fc:	8b 4d ec             	mov    -0x14(%rbp),%ecx
  4068ff:	89 ca                	mov    %ecx,%edx
  406901:	83 c2 01             	add    $0x1,%edx
  406904:	89 55 ec             	mov    %edx,-0x14(%rbp)
  406907:	48 63 c9             	movslq %ecx,%rcx
  40690a:	8a 14 08             	mov    (%rax,%rcx,1),%dl
  40690d:	48 8b 45 e0          	mov    -0x20(%rbp),%rax
  406911:	8b 4d e8             	mov    -0x18(%rbp),%ecx
  406914:	89 ce                	mov    %ecx,%esi
  406916:	83 c6 01             	add    $0x1,%esi
  406919:	89 75 e8             	mov    %esi,-0x18(%rbp)
  40691c:	48 63 c9             	movslq %ecx,%rcx
  40691f:	88 14 08             	mov    %dl,(%rax,%rcx,1)
  406922:	e9 bf ff ff ff       	jmp    4068e6 <get_next_line+0x486>
  406927:	48 8b 45 e0          	mov    -0x20(%rbp),%rax
  40692b:	48 63 4d e8          	movslq -0x18(%rbp),%rcx
  40692f:	c6 04 08 00          	movb   $0x0,(%rax,%rcx,1)
  406933:	48 8b 7d f0          	mov    -0x10(%rbp),%rdi
  406937:	e8 04 a7 ff ff       	call   401040 <free@plt>
  40693c:	48 8b 45 e0          	mov    -0x20(%rbp),%rax
  406940:	48 89 45 f8          	mov    %rax,-0x8(%rbp)
  406944:	48 8b 4d f8          	mov    -0x8(%rbp),%rcx
  406948:	48 63 45 8c          	movslq -0x74(%rbp),%rax
  40694c:	48 89 0c c5 00 21 41 	mov    %rcx,0x412100(,%rax,8)
  406953:	00 
  406954:	48 8b 45 80          	mov    -0x80(%rbp),%rax
  406958:	48 89 45 90          	mov    %rax,-0x70(%rbp)
  40695c:	48 8b 45 90          	mov    -0x70(%rbp),%rax
  406960:	48 81 c4 90 00 00 00 	add    $0x90,%rsp
  406967:	5d                   	pop    %rbp
  406968:	c3                   	ret    
  406969:	0f 1f 80 00 00 00 00 	nopl   0x0(%rax)

0000000000406970 <gnl>:
  406970:	55                   	push   %rbp
  406971:	48 89 e5             	mov    %rsp,%rbp
  406974:	48 81 ec 90 00 00 00 	sub    $0x90,%rsp
  40697b:	89 7d 8c             	mov    %edi,-0x74(%rbp)
  40697e:	83 7d 8c 00          	cmpl   $0x0,-0x74(%rbp)
  406982:	0f 8d 0d 00 00 00    	jge    406995 <gnl+0x25>
  406988:	48 c7 45 90 00 00 00 	movq   $0x0,-0x70(%rbp)
  40698f:	00 
  406990:	e9 d7 04 00 00       	jmp    406e6c <gnl+0x4fc>
  406995:	8b 4d 8c             	mov    -0x74(%rbp),%ecx
  406998:	48 63 45 8c          	movslq -0x74(%rbp),%rax
  40699c:	48 8b 04 c5 00 41 41 	mov    0x414100(,%rax,8),%rax
  4069a3:	00 
  4069a4:	89 4d b4             	mov    %ecx,-0x4c(%rbp)
  4069a7:	48 89 45 a8          	mov    %rax,-0x58(%rbp)
  4069ab:	bf 01 04 00 00       	mov    $0x401,%edi
  4069b0:	e8 5b a7 ff ff       	call   401110 <malloc@plt>
  4069b5:	48 89 45 a0          	mov    %rax,-0x60(%rbp)
  4069b9:	48 83 7d a0 00       	cmpq   $0x0,-0x60(%rbp)
  4069be:	0f 85 0d 00 00 00    	jne    4069d1 <gnl+0x61>
  4069c4:	48 c7 45 b8 00 00 00 	movq   $0x0,-0x48(%rbp)
  4069cb:	00 
  4069cc:	e9 12 01 00 00       	jmp    406ae3 <gnl+0x173>
  4069d1:	c7 45 9c 01 00 00 00 	movl   $0x1,-0x64(%rbp)
  4069d8:	83 7d 9c 00          	cmpl   $0x0,-0x64(%rbp)
  4069dc:	0f 8e f0 00 00 00    	jle    406ad2 <gnl+0x162>
  4069e2:	8b 7d b4             	mov    -0x4c(%rbp),%edi
  4069e5:	48 8b 75 a0          	mov    -0x60(%rbp),%rsi
  4069e9:	ba 00 04 00 00       	mov    $0x400,%edx
  4069ee:	e8 cd a6 ff ff       	call   4010c0 <read@plt>
  4069f3:	89 45 9c             	mov    %eax,-0x64(%rbp)
  4069f6:	83 7d 9c 00          	cmpl   $0x0,-0x64(%rbp)
  4069fa:	0f 8d 2a 00 00 00    	jge    406a2a <gnl+0xba>
  406a00:	48 83 7d a8 00       	cmpq   $0x0,-0x58(%rbp)
  406a05:	0f 84 1f 00 00 00    	je     406a2a <gnl+0xba>
  406a0b:	48 8b 7d a0          	mov    -0x60(%rbp),%rdi
  406a0f:	e8 2c a6 ff ff       	call   401040 <free@plt>
  406a14:	48 8b 7d a8          	mov    -0x58(%rbp),%rdi
  406a18:	e8 23 a6 ff ff       	call   401040 <free@plt>
  406a1d:	48 c7 45 b8 00 00 00 	movq   $0x0,-0x48(%rbp)
  406a24:	00 
  406a25:	e9 b9 00 00 00       	jmp    406ae3 <gnl+0x173>
  406a2a:	83 7d 9c 00          	cmpl   $0x0,-0x64(%rbp)
  406a2e:	0f 8d 16 00 00 00    	jge    406a4a <gnl+0xda>
  406a34:	48 8b 7d a0          	mov    -0x60(%rbp),%rdi
  406a38:	e8 03 a6 ff ff       	call   401040 <free@plt>
  406a3d:	48 c7 45 b8 00 00 00 	movq   $0x0,-0x48(%rbp)
  406a44:	00 
  406a45:	e9 99 00 00 00       	jmp    406ae3 <gnl+0x173>
  406a4a:	48 8b 45 a0          	mov    -0x60(%rbp),%rax
  406a4e:	48 63 4d 9c          	movslq -0x64(%rbp),%rcx
  406a52:	c6 04 08 00          	movb   $0x0,(%rax,%rcx,1)
  406a56:	48 8b 7d a8          	mov    -0x58(%rbp),%rdi
  406a5a:	48 8b 75 a0          	mov    -0x60(%rbp),%rsi
  406a5e:	e8 4d 05 00 00       	call   406fb0 <str_join>
  406a63:	48 89 45 a8          	mov    %rax,-0x58(%rbp)
  406a67:	48 83 7d a8 00       	cmpq   $0x0,-0x58(%rbp)
  406a6c:	0f 85 1f 00 00 00    	jne    406a91 <gnl+0x121>
  406a72:	48 8b 7d a0          	mov    -0x60(%rbp),%rdi
  406a76:	e8 c5 a5 ff ff       	call   401040 <free@plt>
  406a7b:	48 8b 7d a8          	mov    -0x58(%rbp),%rdi
  406a7f:	e8 bc a5 ff ff       	call   401040 <free@plt>
  406a84:	48 c7 45 b8 00 00 00 	movq   $0x0,-0x48(%rbp)
  406a8b:	00 
  406a8c:	e9 52 00 00 00       	jmp    406ae3 <gnl+0x173>
  406a91:	83 7d 9c 00          	cmpl   $0x0,-0x64(%rbp)
  406a95:	0f 84 2d 00 00 00    	je     406ac8 <gnl+0x158>
  406a9b:	83 7d 9c 00          	cmpl   $0x0,-0x64(%rbp)
  406a9f:	0f 8e 28 00 00 00    	jle    406acd <gnl+0x15d>
  406aa5:	48 83 7d a8 00       	cmpq   $0x0,-0x58(%rbp)
  406aaa:	0f 84 1d 00 00 00    	je     406acd <gnl+0x15d>
  406ab0:	48 8b 7d a8          	mov    -0x58(%rbp),%rdi
  406ab4:	be 0a 00 00 00       	mov    $0xa,%esi
  406ab9:	e8 22 04 00 00       	call   406ee0 <ft_strchr>
  406abe:	48 83 f8 00          	cmp    $0x0,%rax
  406ac2:	0f 84 05 00 00 00    	je     406acd <gnl+0x15d>
  406ac8:	e9 05 00 00 00       	jmp    406ad2 <gnl+0x162>
  406acd:	e9 06 ff ff ff       	jmp    4069d8 <gnl+0x68>
  406ad2:	48 8b 7d a0          	mov    -0x60(%rbp),%rdi
  406ad6:	e8 65 a5 ff ff       	call   401040 <free@plt>
  406adb:	48 8b 45 a8          	mov    -0x58(%rbp),%rax
  406adf:	48 89 45 b8          	mov    %rax,-0x48(%rbp)
  406ae3:	48 8b 4d b8          	mov    -0x48(%rbp),%rcx
  406ae7:	48 63 45 8c          	movslq -0x74(%rbp),%rax
  406aeb:	48 89 0c c5 00 41 41 	mov    %rcx,0x414100(,%rax,8)
  406af2:	00 
  406af3:	48 63 45 8c          	movslq -0x74(%rbp),%rax
  406af7:	48 83 3c c5 00 41 41 	cmpq   $0x0,0x414100(,%rax,8)
  406afe:	00 00 
  406b00:	0f 84 18 00 00 00    	je     406b1e <gnl+0x1ae>
  406b06:	48 63 45 8c          	movslq -0x74(%rbp),%rax
  406b0a:	48 8b 04 c5 00 41 41 	mov    0x414100(,%rax,8),%rax
  406b11:	00 
  406b12:	0f be 00             	movsbl (%rax),%eax
  406b15:	83 f8 00             	cmp    $0x0,%eax
  406b18:	0f 85 2e 00 00 00    	jne    406b4c <gnl+0x1dc>
  406b1e:	48 63 45 8c          	movslq -0x74(%rbp),%rax
  406b22:	48 8b 3c c5 00 41 41 	mov    0x414100(,%rax,8),%rdi
  406b29:	00 
  406b2a:	e8 11 a5 ff ff       	call   401040 <free@plt>
  406b2f:	48 63 45 8c          	movslq -0x74(%rbp),%rax
  406b33:	48 c7 04 c5 00 41 41 	movq   $0x0,0x414100(,%rax,8)
  406b3a:	00 00 00 00 00 
  406b3f:	48 c7 45 90 00 00 00 	movq   $0x0,-0x70(%rbp)
  406b46:	00 
  406b47:	e9 20 03 00 00       	jmp    406e6c <gnl+0x4fc>
  406b4c:	48 63 45 8c          	movslq -0x74(%rbp),%rax
  406b50:	48 8b 04 c5 00 41 41 	mov    0x414100(,%rax,8),%rax
  406b57:	00 
  406b58:	48 89 45 d0          	mov    %rax,-0x30(%rbp)
  406b5c:	c7 45 cc 00 00 00 00 	movl   $0x0,-0x34(%rbp)
  406b63:	c7 45 c8 00 00 00 00 	movl   $0x0,-0x38(%rbp)
  406b6a:	48 83 7d d0 00       	cmpq   $0x0,-0x30(%rbp)
  406b6f:	0f 85 0d 00 00 00    	jne    406b82 <gnl+0x212>
  406b75:	48 c7 45 d8 00 00 00 	movq   $0x0,-0x28(%rbp)
  406b7c:	00 
  406b7d:	e9 5f 01 00 00       	jmp    406ce1 <gnl+0x371>
  406b82:	e9 00 00 00 00       	jmp    406b87 <gnl+0x217>
  406b87:	48 8b 45 d0          	mov    -0x30(%rbp),%rax
  406b8b:	48 63 4d c8          	movslq -0x38(%rbp),%rcx
  406b8f:	0f be 0c 08          	movsbl (%rax,%rcx,1),%ecx
  406b93:	31 c0                	xor    %eax,%eax
  406b95:	83 f9 00             	cmp    $0x0,%ecx
  406b98:	88 85 7f ff ff ff    	mov    %al,-0x81(%rbp)
  406b9e:	0f 84 18 00 00 00    	je     406bbc <gnl+0x24c>
  406ba4:	48 8b 45 d0          	mov    -0x30(%rbp),%rax
  406ba8:	48 63 4d c8          	movslq -0x38(%rbp),%rcx
  406bac:	0f be 04 08          	movsbl (%rax,%rcx,1),%eax
  406bb0:	83 f8 0a             	cmp    $0xa,%eax
  406bb3:	0f 95 c0             	setne  %al
  406bb6:	88 85 7f ff ff ff    	mov    %al,-0x81(%rbp)
  406bbc:	8a 85 7f ff ff ff    	mov    -0x81(%rbp),%al
  406bc2:	a8 01                	test   $0x1,%al
  406bc4:	0f 85 05 00 00 00    	jne    406bcf <gnl+0x25f>
  406bca:	e9 0e 00 00 00       	jmp    406bdd <gnl+0x26d>
  406bcf:	8b 45 c8             	mov    -0x38(%rbp),%eax
  406bd2:	83 c0 01             	add    $0x1,%eax
  406bd5:	89 45 c8             	mov    %eax,-0x38(%rbp)
  406bd8:	e9 aa ff ff ff       	jmp    406b87 <gnl+0x217>
  406bdd:	48 8b 45 d0          	mov    -0x30(%rbp),%rax
  406be1:	48 63 4d c8          	movslq -0x38(%rbp),%rcx
  406be5:	0f be 04 08          	movsbl (%rax,%rcx,1),%eax
  406be9:	83 f8 0a             	cmp    $0xa,%eax
  406bec:	0f 85 09 00 00 00    	jne    406bfb <gnl+0x28b>
  406bf2:	8b 45 c8             	mov    -0x38(%rbp),%eax
  406bf5:	83 c0 01             	add    $0x1,%eax
  406bf8:	89 45 c8             	mov    %eax,-0x38(%rbp)
  406bfb:	8b 45 c8             	mov    -0x38(%rbp),%eax
  406bfe:	83 c0 01             	add    $0x1,%eax
  406c01:	48 63 f8             	movslq %eax,%rdi
  406c04:	e8 07 a5 ff ff       	call   401110 <malloc@plt>
  406c09:	48 89 45 c0          	mov    %rax,-0x40(%rbp)
  406c0d:	48 83 7d c0 00       	cmpq   $0x0,-0x40(%rbp)
  406c12:	0f 85 0d 00 00 00    	jne    406c25 <gnl+0x2b5>
  406c18:	48 c7 45 d8 00 00 00 	movq   $0x0,-0x28(%rbp)
  406c1f:	00 
  406c20:	e9 bc 00 00 00       	jmp    406ce1 <gnl+0x371>
  406c25:	c7 45 c8 00 00 00 00 	movl   $0x0,-0x38(%rbp)
  406c2c:	48 8b 45 d0          	mov    -0x30(%rbp),%rax
  406c30:	48 63 4d c8          	movslq -0x38(%rbp),%rcx
  406c34:	0f be 0c 08          	movsbl (%rax,%rcx,1),%ecx
  406c38:	31 c0                	xor    %eax,%eax
  406c3a:	83 f9 00             	cmp    $0x0,%ecx
  406c3d:	88 85 7e ff ff ff    	mov    %al,-0x82(%rbp)
  406c43:	0f 84 18 00 00 00    	je     406c61 <gnl+0x2f1>
  406c49:	48 8b 45 d0          	mov    -0x30(%rbp),%rax
  406c4d:	48 63 4d c8          	movslq -0x38(%rbp),%rcx
  406c51:	0f be 04 08          	movsbl (%rax,%rcx,1),%eax
  406c55:	83 f8 0a             	cmp    $0xa,%eax
  406c58:	0f 95 c0             	setne  %al
  406c5b:	88 85 7e ff ff ff    	mov    %al,-0x82(%rbp)
  406c61:	8a 85 7e ff ff ff    	mov    -0x82(%rbp),%al
  406c67:	a8 01                	test   $0x1,%al
  406c69:	0f 85 05 00 00 00    	jne    406c74 <gnl+0x304>
  406c6f:	e9 24 00 00 00       	jmp    406c98 <gnl+0x328>
  406c74:	48 8b 45 d0          	mov    -0x30(%rbp),%rax
  406c78:	48 63 4d c8          	movslq -0x38(%rbp),%rcx
  406c7c:	8a 14 08             	mov    (%rax,%rcx,1),%dl
  406c7f:	48 8b 45 c0          	mov    -0x40(%rbp),%rax
  406c83:	48 63 4d c8          	movslq -0x38(%rbp),%rcx
  406c87:	88 14 08             	mov    %dl,(%rax,%rcx,1)
  406c8a:	8b 45 c8             	mov    -0x38(%rbp),%eax
  406c8d:	83 c0 01             	add    $0x1,%eax
  406c90:	89 45 c8             	mov    %eax,-0x38(%rbp)
  406c93:	e9 94 ff ff ff       	jmp    406c2c <gnl+0x2bc>
  406c98:	83 7d cc 00          	cmpl   $0x0,-0x34(%rbp)
  406c9c:	0f 84 2b 00 00 00    	je     406ccd <gnl+0x35d>
  406ca2:	48 8b 45 d0          	mov    -0x30(%rbp),%rax
  406ca6:	48 63 4d c8          	movslq -0x38(%rbp),%rcx
  406caa:	0f be 04 08          	movsbl (%rax,%rcx,1),%eax
  406cae:	83 f8 0a             	cmp    $0xa,%eax
  406cb1:	0f 85 16 00 00 00    	jne    406ccd <gnl+0x35d>
  406cb7:	48 8b 45 c0          	mov    -0x40(%rbp),%rax
  406cbb:	8b 4d c8             	mov    -0x38(%rbp),%ecx
  406cbe:	89 ca                	mov    %ecx,%edx
  406cc0:	83 c2 01             	add    $0x1,%edx
  406cc3:	89 55 c8             	mov    %edx,-0x38(%rbp)
  406cc6:	48 63 c9             	movslq %ecx,%rcx
  406cc9:	c6 04 08 0a          	movb   $0xa,(%rax,%rcx,1)
  406ccd:	48 8b 45 c0          	mov    -0x40(%rbp),%rax
  406cd1:	48 63 4d c8          	movslq -0x38(%rbp),%rcx
  406cd5:	c6 04 08 00          	movb   $0x0,(%rax,%rcx,1)
  406cd9:	48 8b 45 c0          	mov    -0x40(%rbp),%rax
  406cdd:	48 89 45 d8          	mov    %rax,-0x28(%rbp)
  406ce1:	48 8b 45 d8          	mov    -0x28(%rbp),%rax
  406ce5:	48 89 45 80          	mov    %rax,-0x80(%rbp)
  406ce9:	48 63 45 8c          	movslq -0x74(%rbp),%rax
  406ced:	48 8b 04 c5 00 41 41 	mov    0x414100(,%rax,8),%rax
  406cf4:	00 
  406cf5:	48 89 45 f0          	mov    %rax,-0x10(%rbp)
  406cf9:	c7 45 ec 00 00 00 00 	movl   $0x0,-0x14(%rbp)
  406d00:	c7 45 e8 00 00 00 00 	movl   $0x0,-0x18(%rbp)
  406d07:	48 83 7d f0 00       	cmpq   $0x0,-0x10(%rbp)
  406d0c:	0f 85 0d 00 00 00    	jne    406d1f <gnl+0x3af>
  406d12:	48 c7 45 f8 00 00 00 	movq   $0x0,-0x8(%rbp)
  406d19:	00 
  406d1a:	e9 35 01 00 00       	jmp    406e54 <gnl+0x4e4>
  406d1f:	e9 00 00 00 00       	jmp    406d24 <gnl+0x3b4>
  406d24:	48 8b 45 f0          	mov    -0x10(%rbp),%rax
  406d28:	48 63 4d ec          	movslq -0x14(%rbp),%rcx
  406d2c:	0f be 0c 08          	movsbl (%rax,%rcx,1),%ecx
  406d30:	31 c0                	xor    %eax,%eax
  406d32:	83 f9 00             	cmp    $0x0,%ecx
  406d35:	88 85 7d ff ff ff    	mov    %al,-0x83(%rbp)
  406d3b:	0f 84 18 00 00 00    	je     406d59 <gnl+0x3e9>
  406d41:	48 8b 45 f0          	mov    -0x10(%rbp),%rax
  406d45:	48 63 4d ec          	movslq -0x14(%rbp),%rcx
  406d49:	0f be 04 08          	movsbl (%rax,%rcx,1),%eax
  406d4d:	83 f8 0a             	cmp    $0xa,%eax
  406d50:	0f 95 c0             	setne  %al
  406d53:	88 85 7d ff ff ff    	mov    %al,-0x83(%rbp)
  406d59:	8a 85 7d ff ff ff    	mov    -0x83(%rbp),%al
  406d5f:	a8 01                	test   $0x1,%al
  406d61:	0f 85 05 00 00 00    	jne    406d6c <gnl+0x3fc>
  406d67:	e9 0e 00 00 00       	jmp    406d7a <gnl+0x40a>
  406d6c:	8b 45 ec             	mov    -0x14(%rbp),%eax
  406d6f:	83 c0 01             	add    $0x1,%eax
  406d72:	89 45 ec             	mov    %eax,-0x14(%rbp)
  406d75:	e9 aa ff ff ff       	jmp    406d24 <gnl+0x3b4>
  406d7a:	48 8b 45 f0          	mov    -0x10(%rbp),%rax
  406d7e:	48 63 4d ec          	movslq -0x14(%rbp),%rcx
  406d82:	80 3c 08 00          	cmpb   $0x0,(%rax,%rcx,1)
  406d86:	0f 84 17 00 00 00    	je     406da3 <gnl+0x433>
  406d8c:	48 8b 45 f0          	mov    -0x10(%rbp),%rax
  406d90:	8b 4d ec             	mov    -0x14(%rbp),%ecx
  406d93:	83 c1 01             	add    $0x1,%ecx
  406d96:	48 63 c9             	movslq %ecx,%rcx
  406d99:	80 3c 08 00          	cmpb   $0x0,(%rax,%rcx,1)
  406d9d:	0f 85 16 00 00 00    	jne    406db9 <gnl+0x449>
  406da3:	48 8b 7d f0          	mov    -0x10(%rbp),%rdi
  406da7:	e8 94 a2 ff ff       	call   401040 <free@plt>
  406dac:	48 c7 45 f8 00 00 00 	movq   $0x0,-0x8(%rbp)
  406db3:	00 
  406db4:	e9 9b 00 00 00       	jmp    406e54 <gnl+0x4e4>
  406db9:	48 8b 7d f0          	mov    -0x10(%rbp),%rdi
  406dbd:	e8 be 00 00 00       	call   406e80 <gnl_strlen>
  406dc2:	48 89 c7             	mov    %rax,%rdi
  406dc5:	48 63 45 ec          	movslq -0x14(%rbp),%rax
  406dc9:	48 29 c7             	sub    %rax,%rdi
  406dcc:	e8 3f a3 ff ff       	call   401110 <malloc@plt>
  406dd1:	48 89 45 e0          	mov    %rax,-0x20(%rbp)
  406dd5:	48 83 7d e0 00       	cmpq   $0x0,-0x20(%rbp)
  406dda:	0f 85 0d 00 00 00    	jne    406ded <gnl+0x47d>
  406de0:	48 c7 45 f8 00 00 00 	movq   $0x0,-0x8(%rbp)
  406de7:	00 
  406de8:	e9 67 00 00 00       	jmp    406e54 <gnl+0x4e4>
  406ded:	8b 45 ec             	mov    -0x14(%rbp),%eax
  406df0:	83 c0 01             	add    $0x1,%eax
  406df3:	89 45 ec             	mov    %eax,-0x14(%rbp)
  406df6:	48 8b 45 f0          	mov    -0x10(%rbp),%rax
  406dfa:	48 63 4d ec          	movslq -0x14(%rbp),%rcx
  406dfe:	80 3c 08 00          	cmpb   $0x0,(%rax,%rcx,1)
  406e02:	0f 84 2f 00 00 00    	je     406e37 <gnl+0x4c7>
  406e08:	48 8b 45 f0          	mov    -0x10(%rbp),%rax
  406e0c:	8b 4d ec             	mov    -0x14(%rbp),%ecx
  406e0f:	89 ca                	mov    %ecx,%edx
  406e11:	83 c2 01             	add    $0x1,%edx
  406e14:	89 55 ec             	mov    %edx,-0x14(%rbp)
  406e17:	48 63 c9             	movslq %ecx,%rcx
  406e1a:	8a 14 08             	mov    (%rax,%rcx,1),%dl
  406e1d:	48 8b 45 e0          	mov    -0x20(%rbp),%rax
  406e21:	8b 4d e8             	mov    -0x18(%rbp),%ecx
  406e24:	89 ce                	mov    %ecx,%esi
  406e26:	83 c6 01             	add    $0x1,%esi
  406e29:	89 75 e8             	mov    %esi,-0x18(%rbp)
  406e2c:	48 63 c9             	movslq %ecx,%rcx
  406e2f:	88 14 08             	mov    %dl,(%rax,%rcx,1)
  406e32:	e9 bf ff ff ff       	jmp    406df6 <gnl+0x486>
  406e37:	48 8b 45 e0          	mov    -0x20(%rbp),%rax
  406e3b:	48 63 4d e8          	movslq -0x18(%rbp),%rcx
  406e3f:	c6 04 08 00          	movb   $0x0,(%rax,%rcx,1)
  406e43:	48 8b 7d f0          	mov    -0x10(%rbp),%rdi
  406e47:	e8 f4 a1 ff ff       	call   401040 <free@plt>
  406e4c:	48 8b 45 e0          	mov    -0x20(%rbp),%rax
  406e50:	48 89 45 f8          	mov    %rax,-0x8(%rbp)
  406e54:	48 8b 4d f8          	mov    -0x8(%rbp),%rcx
  406e58:	48 63 45 8c          	movslq -0x74(%rbp),%rax
  406e5c:	48 89 0c c5 00 41 41 	mov    %rcx,0x414100(,%rax,8)
  406e63:	00 
  406e64:	48 8b 45 80          	mov    -0x80(%rbp),%rax
  406e68:	48 89 45 90          	mov    %rax,-0x70(%rbp)
  406e6c:	48 8b 45 90          	mov    -0x70(%rbp),%rax
  406e70:	48 81 c4 90 00 00 00 	add    $0x90,%rsp
  406e77:	5d                   	pop    %rbp
  406e78:	c3                   	ret    
  406e79:	0f 1f 80 00 00 00 00 	nopl   0x0(%rax)

0000000000406e80 <gnl_strlen>:
  406e80:	55                   	push   %rbp
  406e81:	48 89 e5             	mov    %rsp,%rbp
  406e84:	48 89 7d f0          	mov    %rdi,-0x10(%rbp)
  406e88:	48 83 7d f0 00       	cmpq   $0x0,-0x10(%rbp)
  406e8d:	0f 85 0d 00 00 00    	jne    406ea0 <gnl_strlen+0x20>
  406e93:	48 c7 45 f8 00 00 00 	movq   $0x0,-0x8(%rbp)
  406e9a:	00 
  406e9b:	e9 33 00 00 00       	jmp    406ed3 <gnl_strlen+0x53>
  406ea0:	48 c7 45 e8 00 00 00 	movq   $0x0,-0x18(%rbp)
  406ea7:	00 
  406ea8:	48 8b 45 f0          	mov    -0x10(%rbp),%rax
  406eac:	48 8b 4d e8          	mov    -0x18(%rbp),%rcx
  406eb0:	80 3c 08 00          	cmpb   $0x0,(%rax,%rcx,1)
  406eb4:	0f 84 11 00 00 00    	je     406ecb <gnl_strlen+0x4b>
  406eba:	48 8b 45 e8          	mov    -0x18(%rbp),%rax
  406ebe:	48 83 c0 01          	add    $0x1,%rax
  406ec2:	48 89 45 e8          	mov    %rax,-0x18(%rbp)
  406ec6:	e9 dd ff ff ff       	jmp    406ea8 <gnl_strlen+0x28>
  406ecb:	48 8b 45 e8          	mov    -0x18(%rbp),%rax
  406ecf:	48 89 45 f8          	mov    %rax,-0x8(%rbp)
  406ed3:	48 8b 45 f8          	mov    -0x8(%rbp),%rax
  406ed7:	5d                   	pop    %rbp
  406ed8:	c3                   	ret    
  406ed9:	0f 1f 80 00 00 00 00 	nopl   0x0(%rax)

0000000000406ee0 <ft_strchr>:
  406ee0:	55                   	push   %rbp
  406ee1:	48 89 e5             	mov    %rsp,%rbp
  406ee4:	48 89 7d f0          	mov    %rdi,-0x10(%rbp)
  406ee8:	89 75 ec             	mov    %esi,-0x14(%rbp)
  406eeb:	48 83 7d f0 00       	cmpq   $0x0,-0x10(%rbp)
  406ef0:	0f 85 0d 00 00 00    	jne    406f03 <ft_strchr+0x23>
  406ef6:	48 c7 45 f8 00 00 00 	movq   $0x0,-0x8(%rbp)
  406efd:	00 
  406efe:	e9 9b 00 00 00       	jmp    406f9e <ft_strchr+0xbe>
  406f03:	c7 45 e8 00 00 00 00 	movl   $0x0,-0x18(%rbp)
  406f0a:	48 8b 45 f0          	mov    -0x10(%rbp),%rax
  406f0e:	8b 4d e8             	mov    -0x18(%rbp),%ecx
  406f11:	80 3c 08 00          	cmpb   $0x0,(%rax,%rcx,1)
  406f15:	0f 84 40 00 00 00    	je     406f5b <ft_strchr+0x7b>
  406f1b:	48 8b 45 f0          	mov    -0x10(%rbp),%rax
  406f1f:	8b 4d e8             	mov    -0x18(%rbp),%ecx
  406f22:	89 ca                	mov    %ecx,%edx
  406f24:	83 c2 01             	add    $0x1,%edx
  406f27:	89 55 e8             	mov    %edx,-0x18(%rbp)
  406f2a:	89 c9                	mov    %ecx,%ecx
  406f2c:	0f be 04 08          	movsbl (%rax,%rcx,1),%eax
  406f30:	8b 4d ec             	mov    -0x14(%rbp),%ecx
  406f33:	0f b6 c9             	movzbl %cl,%ecx
  406f36:	39 c8                	cmp    %ecx,%eax
  406f38:	0f 85 18 00 00 00    	jne    406f56 <ft_strchr+0x76>
  406f3e:	48 8b 45 f0          	mov    -0x10(%rbp),%rax
  406f42:	8b 4d e8             	mov    -0x18(%rbp),%ecx
  406f45:	83 e9 01             	sub    $0x1,%ecx
  406f48:	89 c9                	mov    %ecx,%ecx
  406f4a:	48 01 c8             	add    %rcx,%rax
  406f4d:	48 89 45 f8          	mov    %rax,-0x8(%rbp)
  406f51:	e9 48 00 00 00       	jmp    406f9e <ft_strchr+0xbe>
  406f56:	e9 af ff ff ff       	jmp    406f0a <ft_strchr+0x2a>
  406f5b:	48 8b 45 f0          	mov    -0x10(%rbp),%rax
  406f5f:	8b 4d e8             	mov    -0x18(%rbp),%ecx
  406f62:	89 ca                	mov    %ecx,%edx
  406f64:	83 c2 01             	add    $0x1,%edx
  406f67:	89 55 e8             	mov    %edx,-0x18(%rbp)
  406f6a:	89 c9                	mov    %ecx,%ecx
  406f6c:	0f be 04 08          	movsbl (%rax,%rcx,1),%eax
  406f70:	8b 4d ec             	mov    -0x14(%rbp),%ecx
  406f73:	0f b6 c9             	movzbl %cl,%ecx
  406f76:	39 c8                	cmp    %ecx,%eax
  406f78:	0f 85 18 00 00 00    	jne    406f96 <ft_strchr+0xb6>
  406f7e:	48 8b 45 f0          	mov    -0x10(%rbp),%rax
  406f82:	8b 4d e8             	mov    -0x18(%rbp),%ecx
  406f85:	83 e9 01             	sub    $0x1,%ecx
  406f88:	89 c9                	mov    %ecx,%ecx
  406f8a:	48 01 c8             	add    %rcx,%rax
  406f8d:	48 89 45 f8          	mov    %rax,-0x8(%rbp)
  406f91:	e9 08 00 00 00       	jmp    406f9e <ft_strchr+0xbe>
  406f96:	48 c7 45 f8 00 00 00 	movq   $0x0,-0x8(%rbp)
  406f9d:	00 
  406f9e:	48 8b 45 f8          	mov    -0x8(%rbp),%rax
  406fa2:	5d                   	pop    %rbp
  406fa3:	c3                   	ret    
  406fa4:	66 2e 0f 1f 84 00 00 	cs nopw 0x0(%rax,%rax,1)
  406fab:	00 00 00 
  406fae:	66 90                	xchg   %ax,%ax

0000000000406fb0 <str_join>:
  406fb0:	55                   	push   %rbp
  406fb1:	48 89 e5             	mov    %rsp,%rbp
  406fb4:	48 83 ec 40          	sub    $0x40,%rsp
  406fb8:	48 89 7d f0          	mov    %rdi,-0x10(%rbp)
  406fbc:	48 89 75 e8          	mov    %rsi,-0x18(%rbp)
  406fc0:	c7 45 e4 00 00 00 00 	movl   $0x0,-0x1c(%rbp)
  406fc7:	c7 45 e0 00 00 00 00 	movl   $0x0,-0x20(%rbp)
  406fce:	48 8b 7d f0          	mov    -0x10(%rbp),%rdi
  406fd2:	e8 a9 fe ff ff       	call   406e80 <gnl_strlen>
  406fd7:	48 89 45 c8          	mov    %rax,-0x38(%rbp)
  406fdb:	48 8b 7d e8          	mov    -0x18(%rbp),%rdi
  406fdf:	e8 9c fe ff ff       	call   406e80 <gnl_strlen>
  406fe4:	48 89 c1             	mov    %rax,%rcx
  406fe7:	48 8b 45 c8          	mov    -0x38(%rbp),%rax
  406feb:	48 01 c8             	add    %rcx,%rax
  406fee:	89 45 d4             	mov    %eax,-0x2c(%rbp)
  406ff1:	8b 45 d4             	mov    -0x2c(%rbp),%eax
  406ff4:	83 c0 01             	add    $0x1,%eax
  406ff7:	48 63 f8             	movslq %eax,%rdi
  406ffa:	48 c1 e7 00          	shl    $0x0,%rdi
  406ffe:	e8 0d a1 ff ff       	call   401110 <malloc@plt>
  407003:	48 89 45 d8          	mov    %rax,-0x28(%rbp)
  407007:	48 83 7d d8 00       	cmpq   $0x0,-0x28(%rbp)
  40700c:	0f 85 0d 00 00 00    	jne    40701f <str_join+0x6f>
  407012:	48 c7 45 f8 00 00 00 	movq   $0x0,-0x8(%rbp)
  407019:	00 
  40701a:	e9 e3 00 00 00       	jmp    407102 <str_join+0x152>
  40701f:	e9 00 00 00 00       	jmp    407024 <str_join+0x74>
  407024:	31 c0                	xor    %eax,%eax
  407026:	48 83 7d f0 00       	cmpq   $0x0,-0x10(%rbp)
  40702b:	88 45 c7             	mov    %al,-0x39(%rbp)
  40702e:	0f 84 15 00 00 00    	je     407049 <str_join+0x99>
  407034:	48 8b 45 f0          	mov    -0x10(%rbp),%rax
  407038:	48 63 4d e4          	movslq -0x1c(%rbp),%rcx
  40703c:	0f be 04 08          	movsbl (%rax,%rcx,1),%eax
  407040:	83 f8 00             	cmp    $0x0,%eax
  407043:	0f 95 c0             	setne  %al
  407046:	88 45 c7             	mov    %al,-0x39(%rbp)
  407049:	8a 45 c7             	mov    -0x39(%rbp),%al
  40704c:	a8 01                	test   $0x1,%al
  40704e:	0f 85 05 00 00 00    	jne    407059 <str_join+0xa9>
  407054:	e9 24 00 00 00       	jmp    40707d <str_join+0xcd>
  407059:	48 8b 45 f0          	mov    -0x10(%rbp),%rax
  40705d:	48 63 4d e4          	movslq -0x1c(%rbp),%rcx
  407061:	8a 14 08             	mov    (%rax,%rcx,1),%dl
  407064:	48 8b 45 d8          	mov    -0x28(%rbp),%rax
  407068:	48 63 4d e4          	movslq -0x1c(%rbp),%rcx
  40706c:	88 14 08             	mov    %dl,(%rax,%rcx,1)
  40706f:	8b 45 e4             	mov    -0x1c(%rbp),%eax
  407072:	83 c0 01             	add    $0x1,%eax
  407075:	89 45 e4             	mov    %eax,-0x1c(%rbp)
  407078:	e9 a7 ff ff ff       	jmp    407024 <str_join+0x74>
  40707d:	e9 00 00 00 00       	jmp    407082 <str_join+0xd2>
  407082:	31 c0                	xor    %eax,%eax
  407084:	48 83 7d e8 00       	cmpq   $0x0,-0x18(%rbp)
  407089:	88 45 c6             	mov    %al,-0x3a(%rbp)
  40708c:	0f 84 15 00 00 00    	je     4070a7 <str_join+0xf7>
  407092:	48 8b 45 e8          	mov    -0x18(%rbp),%rax
  407096:	48 63 4d e0          	movslq -0x20(%rbp),%rcx
  40709a:	0f be 04 08          	movsbl (%rax,%rcx,1),%eax
  40709e:	83 f8 00             	cmp    $0x0,%eax
  4070a1:	0f 95 c0             	setne  %al
  4070a4:	88 45 c6             	mov    %al,-0x3a(%rbp)
  4070a7:	8a 45 c6             	mov    -0x3a(%rbp),%al
  4070aa:	a8 01                	test   $0x1,%al
  4070ac:	0f 85 05 00 00 00    	jne    4070b7 <str_join+0x107>
  4070b2:	e9 29 00 00 00       	jmp    4070e0 <str_join+0x130>
  4070b7:	48 8b 45 e8          	mov    -0x18(%rbp),%rax
  4070bb:	48 63 4d e0          	movslq -0x20(%rbp),%rcx
  4070bf:	8a 14 08             	mov    (%rax,%rcx,1),%dl
  4070c2:	48 8b 45 d8          	mov    -0x28(%rbp),%rax
  4070c6:	8b 4d e4             	mov    -0x1c(%rbp),%ecx
  4070c9:	03 4d e0             	add    -0x20(%rbp),%ecx
  4070cc:	48 63 c9             	movslq %ecx,%rcx
  4070cf:	88 14 08             	mov    %dl,(%rax,%rcx,1)
  4070d2:	8b 45 e0             	mov    -0x20(%rbp),%eax
  4070d5:	83 c0 01             	add    $0x1,%eax
  4070d8:	89 45 e0             	mov    %eax,-0x20(%rbp)
  4070db:	e9 a2 ff ff ff       	jmp    407082 <str_join+0xd2>
  4070e0:	48 8b 45 d8          	mov    -0x28(%rbp),%rax
  4070e4:	8b 4d e4             	mov    -0x1c(%rbp),%ecx
  4070e7:	03 4d e0             	add    -0x20(%rbp),%ecx
  4070ea:	48 63 c9             	movslq %ecx,%rcx
  4070ed:	c6 04 08 00          	movb   $0x0,(%rax,%rcx,1)
  4070f1:	48 8b 7d f0          	mov    -0x10(%rbp),%rdi
  4070f5:	e8 46 9f ff ff       	call   401040 <free@plt>
  4070fa:	48 8b 45 d8          	mov    -0x28(%rbp),%rax
  4070fe:	48 89 45 f8          	mov    %rax,-0x8(%rbp)
  407102:	48 8b 45 f8          	mov    -0x8(%rbp),%rax
  407106:	48 83 c4 40          	add    $0x40,%rsp
  40710a:	5d                   	pop    %rbp
  40710b:	c3                   	ret    
  40710c:	0f 1f 40 00          	nopl   0x0(%rax)

0000000000407110 <init_all>:
  407110:	55                   	push   %rbp
  407111:	48 89 e5             	mov    %rsp,%rbp
  407114:	48 83 ec 10          	sub    $0x10,%rsp
  407118:	e8 53 e7 ff ff       	call   405870 <init_signal>
  40711d:	89 c1                	mov    %eax,%ecx
  40711f:	b0 01                	mov    $0x1,%al
  407121:	83 f9 00             	cmp    $0x0,%ecx
  407124:	88 45 ff             	mov    %al,-0x1(%rbp)
  407127:	0f 85 18 00 00 00    	jne    407145 <init_all+0x35>
  40712d:	48 bf 1e 83 40 00 00 	movabs $0x40831e,%rdi
  407134:	00 00 00 
  407137:	e8 34 cd ff ff       	call   403e70 <rl_load_history>
  40713c:	83 f8 00             	cmp    $0x0,%eax
  40713f:	0f 95 c0             	setne  %al
  407142:	88 45 ff             	mov    %al,-0x1(%rbp)
  407145:	8a 45 ff             	mov    -0x1(%rbp),%al
  407148:	24 01                	and    $0x1,%al
  40714a:	0f b6 c0             	movzbl %al,%eax
  40714d:	48 83 c4 10          	add    $0x10,%rsp
  407151:	5d                   	pop    %rbp
  407152:	c3                   	ret    
  407153:	66 2e 0f 1f 84 00 00 	cs nopw 0x0(%rax,%rax,1)
  40715a:	00 00 00 
  40715d:	0f 1f 00             	nopl   (%rax)

0000000000407160 <main>:
  407160:	55                   	push   %rbp
  407161:	48 89 e5             	mov    %rsp,%rbp
  407164:	48 83 ec 20          	sub    $0x20,%rsp
  407168:	c7 45 fc 00 00 00 00 	movl   $0x0,-0x4(%rbp)
  40716f:	89 7d f8             	mov    %edi,-0x8(%rbp)
  407172:	48 89 75 f0          	mov    %rsi,-0x10(%rbp)
  407176:	48 89 55 e8          	mov    %rdx,-0x18(%rbp)
  40717a:	e8 91 ff ff ff       	call   407110 <init_all>
  40717f:	48 c7 45 e0 00 00 00 	movq   $0x0,-0x20(%rbp)
  407186:	00 
  407187:	48 bf 2d 83 40 00 00 	movabs $0x40832d,%rdi
  40718e:	00 00 00 
  407191:	b0 00                	mov    $0x0,%al
  407193:	e8 c8 b6 ff ff       	call   402860 <ft_printf>
  407198:	48 bf 44 83 40 00 00 	movabs $0x408344,%rdi
  40719f:	00 00 00 
  4071a2:	e8 09 cb ff ff       	call   403cb0 <read_line>
  4071a7:	48 89 45 e0          	mov    %rax,-0x20(%rbp)
  4071ab:	48 8b 75 e0          	mov    -0x20(%rbp),%rsi
  4071af:	48 bf 4b 83 40 00 00 	movabs $0x40834b,%rdi
  4071b6:	00 00 00 
  4071b9:	b0 00                	mov    $0x0,%al
  4071bb:	e8 a0 b6 ff ff       	call   402860 <ft_printf>
  4071c0:	48 83 7d e0 00       	cmpq   $0x0,-0x20(%rbp)
  4071c5:	0f 95 c0             	setne  %al
  4071c8:	34 ff                	xor    $0xff,%al
  4071ca:	24 01                	and    $0x1,%al
  4071cc:	0f b6 c0             	movzbl %al,%eax
  4071cf:	48 98                	cltq   
  4071d1:	48 83 f8 00          	cmp    $0x0,%rax
  4071d5:	0f 84 05 00 00 00    	je     4071e0 <main+0x80>
  4071db:	e9 b8 ff ff ff       	jmp    407198 <main+0x38>
  4071e0:	48 8b 7d e0          	mov    -0x20(%rbp),%rdi
  4071e4:	e8 a7 a3 ff ff       	call   401590 <is_builtin>
  4071e9:	3c 00                	cmp    $0x0,%al
  4071eb:	0f 84 0e 00 00 00    	je     4071ff <main+0x9f>
  4071f1:	48 8b 7d e0          	mov    -0x20(%rbp),%rdi
  4071f5:	e8 16 a5 ff ff       	call   401710 <exec_builtin>
  4071fa:	e9 15 00 00 00       	jmp    407214 <main+0xb4>
  4071ff:	48 8b 7d e0          	mov    -0x20(%rbp),%rdi
  407203:	e8 68 a9 ff ff       	call   401b70 <built_exec_data>
  407208:	48 89 c7             	mov    %rax,%rdi
  40720b:	48 8b 75 e8          	mov    -0x18(%rbp),%rsi
  40720f:	e8 8c aa ff ff       	call   401ca0 <exec_cmd>
  407214:	e9 00 00 00 00       	jmp    407219 <main+0xb9>
  407219:	48 8b 7d e0          	mov    -0x20(%rbp),%rdi
  40721d:	e8 ee cb ff ff       	call   403e10 <rl_add_history>
  407222:	48 8b 7d e0          	mov    -0x20(%rbp),%rdi
  407226:	e8 25 c5 ff ff       	call   403750 <mm_free>
  40722b:	e9 68 ff ff ff       	jmp    407198 <main+0x38>

Disassembly of section .fini:

0000000000407230 <_fini>:
  407230:	f3 0f 1e fa          	endbr64 
  407234:	48 83 ec 08          	sub    $0x8,%rsp
  407238:	48 83 c4 08          	add    $0x8,%rsp
  40723c:	c3                   	ret    
